00401000  55  PUSH EBP  ; Function prologue - save frame pointer
00401001  8BEC  MOV EBP, ESP  ; Function prologue - setup frame pointer
00401003  53  PUSH EBX  
00401004  56  PUSH ESI  
00401005  57  PUSH EDI  
00401006  66:0F280500304000  MOVAPS XMM0,DQWORD PTR DS:[00403000H]  
0040100E  66:0F280D10304000  MOVAPS XMM1,DQWORD PTR DS:[00403010H]  
00401016  F2:0F100500000000  MOVSD XMM0,DWORD PTR DS:[00000000H]  
0040101E  F2:0F10C8  MOVSD XMM1, XMM0  
00401022  F2:0F110500000000  MOVSD DWORD PTR DS:[00000000H],XMM0  
0040102A  66:0F6FC1  MOVQ MM0,MM1  
0040102E  F3:0F6FC2  REPE MOVQ MM0,MM2  
00401031  66:0F  MOVQ ,XMM0  
00401034  C1660F 16  SHL DWORD PTR DS:[ESI+0FH],16H  
00401038  05 00000000  ADD EAX, 00000000H  
0040103D  66:0F120500000000  MOVLPS XMM0,QWORD PTR DS:[00000000H]  
00401045  5F  POP EDI  
00401046  5E  POP ESI  
00401047  5B  POP EBX  
00401048  5D  POP EBP  ; Function epilogue - restore frame pointer
00401049  C3  RET  ;Pop IP ; Return from function
0040104A  CC  INT3  
0040104B  CC  INT3  
0040104C  CC  INT3  
0040104D  CC  INT3  
0040104E  CC  INT3  
0040104F  55  PUSH EBP  ; Function prologue - save frame pointer
00401050  8BEC  MOV EBP, ESP  ; Function prologue - setup frame pointer
00401052  53  PUSH EBX  
00401053  56  PUSH ESI  
00401054  57  PUSH EDI  
00401055  66:0F58C1  ADDPS XMM0,XMM1  
00401059  66:0F5CC1  SUBPS XMM0,XMM1  
0040105D  66:0F59C1  MULPS XMM0,XMM1  
00401061  66:0F5EC1  DIVPS XMM0,XMM1  
00401065  66:0F51C1  SQRTPS XMM0,XMM1  
00401069  F2:0F58C1  ADDSD XMM0,XMM1  
0040106D  F2:0F5CC1  SUBSD XMM0,XMM1  
00401071  F2:0F59C1  MULSD XMM0,XMM1  
00401075  F2:0F5EC1  DIVSD XMM0,XMM1  
00401079  F2:0F51C1  SQRTSD XMM0,XMM1  
0040107D  F2:0F5FC1  MAXSD XMM0,XMM1  
00401081  F2:0F5DC1  MINSD XMM0,XMM1  
00401085  5F  POP EDI  
00401086  5E  POP ESI  
00401087  5B  POP EBX  
00401088  5D  POP EBP  ; Function epilogue - restore frame pointer
00401089  C3  RET  ;Pop IP ; Return from function
0040108A  CC  INT3  
0040108B  CC  INT3  
0040108C  CC  INT3  
0040108D  CC  INT3  
0040108E  CC  INT3  
0040108F  55  PUSH EBP  ; Function prologue - save frame pointer
00401090  8BEC  MOV EBP, ESP  ; Function prologue - setup frame pointer
00401092  53  PUSH EBX  
00401093  56  PUSH ESI  
00401094  57  PUSH EDI  
00401095  F2:0FC2C1 00  CMPEQSD XMM0,XMM1  
0040109A  F2:0FC2C1 01  CMPLTSD XMM0,XMM1  
0040109F  F2:0FC2C1 02  CMPLESD XMM0,XMM1  
004010A4  F2:0FC2C1 03  CMPUNORDSD XMM0,XMM1  
004010A9  F2:0FC2C1 04  CMPNEQSD XMM0,XMM1  
004010AE  F2:0FC2C1 05  CMPNLTSD XMM0,XMM1  
004010B3  F2:0FC2C1 06  CMPNLESD XMM0,XMM1  
004010B8  F2:0FC2C1 07  CMPORDSD XMM0,XMM1  
004010BD  66:0F2EC1  UCOMISS XMM0, XMM1  
004010C1  66:0F2FC1  COMISS XMM0, XMM1  
004010C5  5F  POP EDI  
004010C6  5E  POP ESI  
004010C7  5B  POP EBX  
004010C8  5D  POP EBP  ; Function epilogue - restore frame pointer
004010C9  C3  RET  ;Pop IP ; Return from function
004010CA  CC  INT3  
004010CB  CC  INT3  
004010CC  CC  INT3  
004010CD  CC  INT3  
004010CE  CC  INT3  
004010CF  55  PUSH EBP  ; Function prologue - save frame pointer
004010D0  8BEC  MOV EBP, ESP  ; Function prologue - setup frame pointer
004010D2  53  PUSH EBX  
004010D3  56  PUSH ESI  
004010D4  57  PUSH EDI  
004010D5  F2:0F2AC0  CVTSI2SD XMM0, EAX  
004010D9  F2:0F2DC0  CVTSD2SI EAX, XMM0  
004010DD  F2:0F2CC0  CVTTSD2SI EAX, XMM0  
004010E1  0F5AC1  CVTPS2PD XMM0, XMM1  
004010E4  66:0F5AC1  CVTPS2PD XMM0, XMM1  
004010E8  F3:0F5AC1  CVTSS2SD XMM0, XMM1  
004010EC  F2:0F5AC1  CVTSD2SS XMM0, XMM1  
004010F0  0F5BC1  CVTDQ2PS XMM0, XMM1  
004010F3  F3:0F5BC1  CVTTPS2DQ XMM0, XMM1  
004010F7  F2:0FE6C1  CVTPD2DQ XMM0, XMM1  
004010FB  F3:0FE6C1  CVTDQ2PD XMM0, XMM1  
004010FF  66:0FE6C1  CVTTPD2DQ XMM0, XMM1  
00401103  5F  POP EDI  
00401104  5E  POP ESI  
00401105  5B  POP EBX  
00401106  5D  POP EBP  ; Function epilogue - restore frame pointer
00401107  C3  RET  ;Pop IP ; Return from function
00401108  CC  INT3  
00401109  CC  INT3  
0040110A  CC  INT3  
0040110B  CC  INT3  
0040110C  CC  INT3  
0040110D  CC  INT3  
0040110E  CC  INT3  
0040110F  55  PUSH EBP  ; Function prologue - save frame pointer
00401110  8BEC  MOV EBP, ESP  ; Function prologue - setup frame pointer
00401112  53  PUSH EBX  
00401113  56  PUSH ESI  
00401114  57  PUSH EDI  
00401115  66:0FFCC1  PADDB MM0,MM1  
00401119  66:0FFDC1  PADDW MM0,MM1  
0040111D  66:0FFEC1  PADDD MM0,MM1  
00401121  66:0FD4  ???  
00401124  C1660F F8  SHL DWORD PTR DS:[ESI+0FH],F8H  
00401128  C1660F F9  SHL DWORD PTR DS:[ESI+0FH],F9H  
0040112C  C1660F FA  SHL DWORD PTR DS:[ESI+0FH],FAH  
00401130  C1660F DB  SHL DWORD PTR DS:[ESI+0FH],DBH  
00401134  C1660F EB  SHL DWORD PTR DS:[ESI+0FH],EBH  
00401138  C1660F EF  SHL DWORD PTR DS:[ESI+0FH],EFH  
0040113C  C1660F 70  SHL DWORD PTR DS:[ESI+0FH],70H  
00401140  C11B F3  RCR DWORD PTR DS:[EBX],F3H  
00401143  0F70C1 E4  PSHUFW MM0,MM1,E4H  
00401147  F2:0F70C1 E4  REPNE PSHUFW MM0,MM1,E4H  
0040114B  F2:0F  MOVDQ2Q XMM0,  
0040114D  C0F30F  SAL BL, 0FH  
00401150  D6  SALC  ;Set the Carry flag in AL
00401151  C00F 77  ROR BYTE PTR DS:[EDI],77H  
00401154  5F  POP EDI  
00401155  5E  POP ESI  
00401156  5B  POP EBX  
00401157  5D  POP EBP  ; Function epilogue - restore frame pointer
00401158  C3  RET  ;Pop IP ; Return from function
00401159  CC  INT3  
0040115A  CC  INT3  
0040115B  CC  INT3  
0040115C  CC  INT3  
0040115D  55  PUSH EBP  ; Function prologue - save frame pointer
0040115E  8BEC  MOV EBP, ESP  ; Function prologue - setup frame pointer
00401160  53  PUSH EBX  
00401161  56  PUSH ESI  
00401162  57  PUSH EDI  
00401163  0FAEE8  LFENCE  
00401166  0FAEF0  MFENCE  
00401169  F3:    ;Prefix REP:
0040116A  90  NOP  
0040116B  0FC3  ???  
0040116D  03660F  ADD ESP,DWORD PTR DS:[ESI+0FH]  
00401170  2B03  SUB EAX,DWORD PTR DS:[EBX]  
00401172  66:0FE703  MOVNTQ QWORD PTR DS:[EBX],MM0  
00401176  66:0FD7C0  PMOVMSKB AX,MM0  
0040117A  66:0F50C0  MOVMSKPS AX,XMM0  
0040117E  5F  POP EDI  
0040117F  5E  POP ESI  
00401180  5B  POP EBX  
00401181  5D  POP EBP  ; Function epilogue - restore frame pointer
00401182  C3  RET  ;Pop IP ; Return from function
00401183  CC  INT3  
00401184  CC  INT3  
00401185  CC  INT3  
00401186  CC  INT3  
00401187  CC  INT3  
00401188  CC  INT3  
00401189  CC  INT3  
0040118A  CC  INT3  
0040118B  CC  INT3  
0040118C  CC  INT3  
0040118D  55  PUSH EBP  ; Function prologue - save frame pointer
0040118E  8BEC  MOV EBP, ESP  ; Function prologue - setup frame pointer
00401190  E8 68FEFFFF  CALL 00400FFD  ; Call outside code section
00401195  E8 B3FEFFFF  CALL 0040104D  
0040119A  E8 EEFEFFFF  CALL 0040108D  
0040119F  E8 29FFFFFF  CALL 004010CD  
004011A4  E8 64FFFFFF  CALL 0040110D  
004011A9  E8 AFFFFFFF  CALL 0040115D  
004011AE  33C0  XOR EAX, EAX  ; Zero EAX (return 0 or clear register)
004011B0  5D  POP EBP  ; Function epilogue - restore frame pointer
004011B1  C3  RET  ;Pop IP ; Return from function
004011B2  56  PUSH ESI  
004011B3  6A01  PUSH 01H  
004011B5  E8 CC0C0000  CALL 00401E86  
004011BA  E8 39050000  CALL 004016F8  
004011BF  50  PUSH EAX  
004011C0  E8 F70C0000  CALL 00401EBC  
004011C5  E8 27050000  CALL 004016F1  
004011CA  8BF0  MOV ESI, EAX  
004011CC  E8 1B0D0000  CALL 00401EEC  
004011D1  6A01  PUSH 01H  
004011D3  8930  MOV DWORD PTR DS:[EAX],ESI  
004011D5  E8 D9020000  CALL 004014B3  
004011DA  83C40C  ADD ESP, 0CH  
004011DD  5E  POP ESI  
004011DE  84C0  TEST AL, AL  
004011E0  7473  JZ 00401255  
004011E2  DBE2  FCLEX  
004011E4  E8 52070000  CALL 0040193B  
004011E9  68 6A194000  PUSH 0040196AH  
004011EE  E8 51040000  CALL 00401644  
004011F3  E8 FC040000  CALL 004016F4  
004011F8  50  PUSH EAX  
004011F9  E8 940C0000  CALL 00401E92  
004011FE  59  POP ECX  
004011FF  59  POP ECX  
00401200  85C0  TEST EAX, EAX  ; Check if EAX is zero
00401202  7551  JNZ 00401255  
00401204  E8 F5040000  CALL 004016FE  
00401209  E8 4C050000  CALL 0040175A  
0040120E  85C0  TEST EAX, EAX  ; Check if EAX is zero
00401210  740B  JZ 0040121D  
00401212  68 F4164000  PUSH 004016F4H  
00401217  E8 700C0000  CALL 00401E8C  
0040121C  59  POP ECX  
0040121D  E8 0C050000  CALL 0040172E  
00401222  E8 07050000  CALL 0040172E  
00401227  E8 E1040000  CALL 0040170D  
0040122C  E8 C0040000  CALL 004016F1  
00401231  50  PUSH EAX  
00401232  E8 A90C0000  CALL 00401EE0  
00401237  59  POP ECX  
00401238  E8 CD040000  CALL 0040170A  
0040123D  84C0  TEST AL, AL  
0040123F  7405  JZ 00401246  
00401241  E8 520C0000  CALL 00401E98  
00401246  E8 A6040000  CALL 004016F1  
0040124B  E8 37060000  CALL 00401887  
00401250  85C0  TEST EAX, EAX  ; Check if EAX is zero
00401252  7501  JNZ 00401255  
00401254  C3  RET  ;Pop IP ; Return from function
00401255  6A07  PUSH 07H  
00401257  E8 16050000  CALL 00401772  
0040125C  CC  INT3  
0040125D  E8 DB040000  CALL 0040173D  
00401262  33C0  XOR EAX, EAX  ; Zero EAX (return 0 or clear register)
00401264  C3  RET  ;Pop IP ; Return from function
00401265  E8 64060000  CALL 004018CE  
0040126A  E8 82040000  CALL 004016F1  
0040126F  50  PUSH EAX  
00401270  E8 710C0000  CALL 00401EE6  
00401275  59  POP ECX  
00401276  C3  RET  ;Pop IP ; Return from function
00401277  6A14  PUSH 14H  
00401279  68 C8244000  PUSH 004024C8H  
0040127E  E8 1A070000  CALL 0040199D  
00401283  6A01  PUSH 01H  
00401285  E8 F0010000  CALL 0040147A  
0040128A  59  POP ECX  
0040128B  84C0  TEST AL, AL  
0040128D  0F84 53010000  JZ 004013E6  
00401293  32DB  XOR BL, BL  
00401295  885DE7  MOV BYTE PTR SS:[EBP-19H],BL  ; Local variable at [ebp-19H]
00401298  C745FC 00000000  MOV DWORD PTR SS:[EBP-04H],00000000H  ; Local variable at [ebp-04H]
0040129F  E8 A4010000  CALL 00401448  
004012A4  8845DC  MOV BYTE PTR SS:[EBP-24H],AL  ; Local variable at [ebp-24H]
004012A7  A1 88304000  MOV EAX, DWORD PTR DS:[00403088H]  
004012AC  33C9  XOR ECX, ECX  
004012AE  41  INC ECX  
004012AF  3BC1  CMP EAX, ECX  
004012B1  0F84 2F010000  JZ 004013E6  
004012B7  85C0  TEST EAX, EAX  ; Check if EAX is zero
004012B9  7549  JNZ 00401304  
004012BB  890D88304000  MOV DWORD PTR DS:[00403088H],ECX  
004012C1  68 DC204000  PUSH 004020DCH  
004012C6  68 D0204000  PUSH 004020D0H  
004012CB  E8 DA0B0000  CALL 00401EAA  
004012D0  59  POP ECX  
004012D1  59  POP ECX  
004012D2  85C0  TEST EAX, EAX  ; Check if EAX is zero
004012D4  7411  JZ 004012E7  
004012D6  C745FC FEFFFFFF  MOV DWORD PTR SS:[EBP-04H],FFFFFFFEH  ; Local variable at [ebp-04H]
004012DD  B8 FF000000  MOV EAX, 000000FFH  
004012E2  E9 EF000000  JMP 004013D6  
004012E7  68 CC204000  PUSH 004020CCH  
004012EC  68 C4204000  PUSH 004020C4H  
004012F1  E8 AE0B0000  CALL 00401EA4  
004012F6  59  POP ECX  
004012F7  59  POP ECX  
004012F8  C70588304000 02000000  MOV DWORD PTR DS:[00403088H],00000002H  
00401302  EB05  JMP 00401309  
00401304  8AD9  MOV BL, CL  
00401306  885DE7  MOV BYTE PTR SS:[EBP-19H],BL  ; Local variable at [ebp-19H]
00401309  FF75DC  PUSH DWORD PTR SS:[EBP-24H]  ; Local variable at [ebp-24H]
0040130C  E8 C0020000  CALL 004015D1  
00401311  59  POP ECX  
00401312  E8 4F040000  CALL 00401766  
00401317  8BF0  MOV ESI, EAX  
00401319  33FF  XOR EDI, EDI  
0040131B  393E  CMP DWORD PTR DS:[ESI],EDI  
0040131D  741B  JZ 0040133A  
0040131F  56  PUSH ESI  
00401320  E8 15020000  CALL 0040153A  
00401325  59  POP ECX  
00401326  84C0  TEST AL, AL  
00401328  7410  JZ 0040133A  
0040132A  8B36  MOV ESI,DWORD PTR DS:[ESI]  
0040132C  57  PUSH EDI  
0040132D  6A02  PUSH 02H  
0040132F  57  PUSH EDI  
00401330  8BCE  MOV ECX, ESI  
00401332  FF15BC204000  CALL DWORD PTR DS:[004020BCH]  
00401338  FFD6  CALL ESI  
0040133A  E8 2D040000  CALL 0040176C  
0040133F  8BF0  MOV ESI, EAX  
00401341  393E  CMP DWORD PTR DS:[ESI],EDI  
00401343  7413  JZ 00401358  
00401345  56  PUSH ESI  
00401346  E8 EF010000  CALL 0040153A  
0040134B  59  POP ECX  
0040134C  84C0  TEST AL, AL  
0040134E  7408  JZ 00401358  
00401350  FF36  PUSH DWORD PTR DS:[ESI]  
00401352  E8 830B0000  CALL 00401EDA  
00401357  59  POP ECX  
00401358  E8 410B0000  CALL 00401E9E  
0040135D  8BF8  MOV EDI, EAX  
0040135F  E8 640B0000  CALL 00401EC8  
00401364  8B30  MOV ESI,DWORD PTR DS:[EAX]  
00401366  E8 570B0000  CALL 00401EC2  
0040136B  57  PUSH EDI  
0040136C  56  PUSH ESI  
0040136D  FF30  PUSH DWORD PTR DS:[EAX]  
0040136F  E8 19FEFFFF  CALL 0040118D  
00401374  83C40C  ADD ESP, 0CH  
00401377  8BF0  MOV ESI, EAX  
00401379  E8 0E050000  CALL 0040188C  
0040137E  84C0  TEST AL, AL  
00401380  746B  JZ 004013ED  
00401382  84DB  TEST BL, BL  
00401384  7505  JNZ 0040138B  
00401386  E8 430B0000  CALL 00401ECE  
0040138B  6A00  PUSH 00H  
0040138D  6A01  PUSH 01H  
0040138F  E8 5A020000  CALL 004015EE  
00401394  59  POP ECX  
00401395  59  POP ECX  
00401396  C745FC FEFFFFFF  MOV DWORD PTR SS:[EBP-04H],FFFFFFFEH  ; Local variable at [ebp-04H]
0040139D  8BC6  MOV EAX, ESI  
0040139F  EB35  JMP 004013D6  
004013A1  8B4DEC  MOV ECX,DWORD PTR SS:[EBP-14H]  ; Local variable at [ebp-14H]
004013A4  8B01  MOV EAX,DWORD PTR DS:[ECX]  
004013A6  8B00  MOV EAX,DWORD PTR DS:[EAX]  
004013A8  8945E0  MOV DWORD PTR SS:[EBP-20H],EAX  ; Local variable at [ebp-20H]
004013AB  51  PUSH ECX  
004013AC  50  PUSH EAX  
004013AD  E8 CE0A0000  CALL 00401E80  
004013B2  59  POP ECX  
004013B3  59  POP ECX  
004013B4  C3  RET  ;Pop IP ; Return from function
004013B5  8B65E8  MOV ESP,DWORD PTR SS:[EBP-18H]  ; Function epilogue - restore stack pointer
004013B8  E8 CF040000  CALL 0040188C  
004013BD  84C0  TEST AL, AL  
004013BF  7432  JZ 004013F3  
004013C1  807DE700  CMP BYTE PTR SS:[EBP-19H],00H  ; Local variable at [ebp-19H]
004013C5  7505  JNZ 004013CC  
004013C7  E8 080B0000  CALL 00401ED4  
004013CC  C745FC FEFFFFFF  MOV DWORD PTR SS:[EBP-04H],FFFFFFFEH  ; Local variable at [ebp-04H]
004013D3  8B45E0  MOV EAX,DWORD PTR SS:[EBP-20H]  ; Local variable at [ebp-20H]
004013D6  8B4DF0  MOV ECX,DWORD PTR SS:[EBP-10H]  ; Local variable at [ebp-10H]
004013D9  64:890D00000000  MOV DWORD PTR FS:[00000000H],ECX  
004013E0  59  POP ECX  
004013E1  5F  POP EDI  
004013E2  5E  POP ESI  
004013E3  5B  POP EBX  
004013E4  C9  LEAVE  ;Releases the local variables ; Function epilogue - restore stack frame
004013E5  C3  RET  ;Pop IP ; Return from function
004013E6  6A07  PUSH 07H  
004013E8  E8 85030000  CALL 00401772  
004013ED  56  PUSH ESI  
004013EE  E8 BD0A0000  CALL 00401EB0  
004013F3  FF75E0  PUSH DWORD PTR SS:[EBP-20H]  ; Local variable at [ebp-20H]
004013F6  E8 BB0A0000  CALL 00401EB6  
004013FB  CC  INT3  
004013FC  E8 A5020000  CALL 004016A6  
00401401  E9 71FEFFFF  JMP 00401277  
00401406  55  PUSH EBP  ; Function prologue - save frame pointer
00401407  8BEC  MOV EBP, ESP  ; Function prologue - setup frame pointer
00401409  8B  DB 8BH  ; '‹'
0040140A  45  DB 45H  ; 'E'
0040140B  08  DB 08H  ; ''
0040140C  56  DB 56H  ; 'V'
0040140D  8B  DB 8BH  ; '‹'
0040140E  48  DB 48H  ; 'H'
0040140F  3C  DB 3CH  ; '<'
00401410  03  DB 03H  ; ''
00401411  C8  DB 0C8H  ; 'Č'
00401412  0F  DB 0FH  ; ''
00401413  B7  DB 0B7H  ; '·'
00401414  41  DB 41H  ; 'A'
00401415  14  DB 14H  ; ''
00401416  8D  DB 8DH  ; 'Ť'
00401417  51  DB 51H  ; 'Q'
00401418  18  DB 18H  ; ''
00401419  03  DB 03H  ; ''
0040141A  D0  DB 0D0H  ; 'Đ'
0040141B  0F  DB 0FH  ; ''
0040141C  B7  DB 0B7H  ; '·'
0040141D  41  DB 41H  ; 'A'
0040141E  06  DB 06H  ; ''
0040141F  6B  DB 6BH  ; 'k'
00401420  F0  DB 0F0H  ; 'đ'
00401421  28  DB 28H  ; '('
00401422  03  DB 03H  ; ''
00401423  F2  DB 0F2H  ; 'ň'
00401424  EB  DB 0EBH  ; 'ë'
00401425  15  DB 15H  ; ''
00401426  8B  DB 8BH  ; '‹'
00401427  4A  DB 4AH  ; 'J'
00401428  0C  DB 0CH  ; ''
00401429  394D0C  CMP DWORD PTR SS:[EBP+0CH],ECX  ; Function parameter 2 (arg_4)
0040142C  720A  JB 00401438  
0040142E  8B4208  MOV EAX,DWORD PTR DS:[EDX+08H]  
00401431  03C1  ADD EAX, ECX  
00401433  39450C  CMP DWORD PTR SS:[EBP+0CH],EAX  ; Function parameter 2 (arg_4)
00401436  720C  JB 00401444  
00401438  83C228  ADD EDX, 28H  
0040143B  3BD6  CMP EDX, ESI  
0040143D  75E7  JNZ 00401426  
0040143F  33C0  XOR EAX, EAX  ; Zero EAX (return 0 or clear register)
00401441  5E  POP ESI  
00401442  5D  POP EBP  ; Function epilogue - restore frame pointer
00401443  C3  RET  ;Pop IP ; Return from function
00401444  8BC2  MOV EAX, EDX  
00401446  EBF9  JMP 00401441  
00401448  56  PUSH ESI  
00401449  E8 DD080000  CALL 00401D2B  
0040144E  85  DB 85H  ; '…'
0040144F  C0  DB 0C0H  ; 'Ŕ'
00401450  7420  JZ 00401472  
00401452  64:A1 18000000  MOV EAX, DWORD PTR FS:[00000018H]  
00401458  BE 8C304000  MOV ESI, 0040308CH  
0040145D  8B5004  MOV EDX,DWORD PTR DS:[EAX+04H]  
00401460  EB04  JMP 00401466  
00401462  3BD0  CMP EDX, EAX  
00401464  7410  JZ 00401476  
00401466  33C0  XOR EAX, EAX  ; Zero EAX (return 0 or clear register)
00401468  8BCA  MOV ECX, EDX  
0040146A  F0:0FB10E  LOCK CMPXCHG DWORD PTR DS:[ESI],ECX  
0040146E  85C0  TEST EAX, EAX  ; Check if EAX is zero
00401470  75F0  JNZ 00401462  
00401472  32C0  XOR AL, AL  
00401474  5E  POP ESI  
00401475  C3  RET  ;Pop IP ; Return from function
00401476  B001  MOV AL, 01H  
00401478  5E  POP ESI  
00401479  C3  RET  ;Pop IP ; Return from function
0040147A  55  PUSH EBP  ; Function prologue - save frame pointer
0040147B  8BEC  MOV EBP, ESP  ; Function prologue - setup frame pointer
    ; ====== Proc_0040147D Proc ======  
0040147D  837D0800  CMP DWORD PTR SS:[EBP+08H],00H  ; Function parameter 1 (arg_0)
00401481  7507  JNZ 0040148A  
00401483  C60590304000 01  MOV BYTE PTR DS:[00403090H],01H  
0040148A  E8 82050000  CALL 00401A11  
0040148F  E8 76020000  CALL 0040170A  
00401494  84C0  TEST AL, AL  
00401496  7504  JNZ 0040149C  
00401498  32C0  XOR AL, AL  
0040149A  5D  POP EBP  ; Function epilogue - restore frame pointer
0040149B  C3  RET  ;Pop IP ; Return from function
0040149C  E8 69020000  CALL 0040170A  
004014A1  84C0  TEST AL, AL  
004014A3  750A  JNZ 004014AF  
004014A5  6A00  PUSH 00H  
004014A7  E8 5E020000  CALL 0040170A  
004014AC  59  POP ECX  
004014AD  EBE9  JMP 00401498  
004014AF  B001  MOV AL, 01H  
004014B1  5D  POP EBP  ; Function epilogue - restore frame pointer
004014B2  C3  RET  ;Pop IP ; Return from function
004014B3  55  PUSH EBP  ; Function prologue - save frame pointer
004014B4  8BEC  MOV EBP, ESP  ; Function prologue - setup frame pointer
004014B6  803D91304000 00  CMP BYTE PTR DS:[00403091H],00H  ; Proc_0040147D endp ; Compare with zero (null check)
004014BD  7404  JZ 004014C3  
004014BF  B001  MOV AL, 01H  
004014C1  5D  POP EBP  ; Function epilogue - restore frame pointer
004014C2  C3  RET  ;Pop IP ; Return from function
004014C3  56  PUSH ESI  
004014C4  8B7508  MOV ESI,DWORD PTR SS:[EBP+08H]  ; Function parameter 1 (arg_0)
004014C7  85F6  TEST ESI, ESI  
004014C9  7405  JZ 004014D0  
004014CB  83FE01  CMP ESI, 01H  ; Compare with zero (null check)
004014CE  7562  JNZ 00401532  
004014D0  E8 56080000  CALL 00401D2B  
004014D5  85C0  TEST EAX, EAX  ; Check if EAX is zero
004014D7  7426  JZ 004014FF  
004014D9  85F6  TEST ESI, ESI  
004014DB  7522  JNZ 004014FF  
004014DD  68 94304000  PUSH 00403094H  
004014E2  E8 0B0A0000  CALL 00401EF2  
004014E7  59  POP ECX  
004014E8  85C0  TEST EAX, EAX  ; Check if EAX is zero
004014EA  750F  JNZ 004014FB  
004014EC  68 A0304000  PUSH 004030A0H  
004014F1  E8 FC090000  CALL 00401EF2  
004014F6  59  POP ECX  
004014F7  85C0  TEST EAX, EAX  ; Check if EAX is zero
004014F9  742B  JZ 00401526  
004014FB  32C0  XOR AL, AL  
004014FD  EB30  JMP 0040152F  
004014FF  83C9FF  OR ECX, -01H  
00401502  890D94304000  MOV DWORD PTR DS:[00403094H],ECX  
00401508  890D98304000  MOV DWORD PTR DS:[00403098H],ECX  
0040150E  890D9C304000  MOV DWORD PTR DS:[0040309CH],ECX  
00401514  890DA0304000  MOV DWORD PTR DS:[004030A0H],ECX  
0040151A  890DA4304000  MOV DWORD PTR DS:[004030A4H],ECX  
00401520  890DA8304000  MOV DWORD PTR DS:[004030A8H],ECX  
00401526  C60591304000 01  MOV BYTE PTR DS:[00403091H],01H  
0040152D  B001  MOV AL, 01H  
0040152F  5E  POP ESI  
00401530  5D  POP EBP  ; Function epilogue - restore frame pointer
00401531  C3  RET  ;Pop IP ; Return from function
00401532  6A05  PUSH 05H  
00401534  E8 39020000  CALL 00401772  
00401539  CC  INT3  
0040153A  6A08  PUSH 08H  
0040153C  68 E8244000  PUSH 004024E8H  
00401541  E8 57040000  CALL 0040199D  
00401546  C745FC 00000000  MOV DWORD PTR SS:[EBP-04H],00000000H  ; Local variable at [ebp-04H]
0040154D  B8 4D5A0000  MOV EAX, 00005A4DH  
00401552  66:390500004000  CMP WORD PTR DS:[00400000H],AX  
00401559  755D  JNZ 004015B8  
0040155B  A1 3C004000  MOV EAX, DWORD PTR DS:[0040003CH]  
00401560  81B8 00004000 50450000  CMP DWORD PTR DS:[EAX+00400000H],00004550H  ; Compare with zero (null check)
0040156A  754C  JNZ 004015B8  
0040156C  B9 0B010000  MOV ECX, 0000010BH  
00401571  66:3988 18004000  CMP WORD PTR DS:[EAX+00400018H],CX  
00401578  753E  JNZ 004015B8  
0040157A  8B4508  MOV EAX,DWORD PTR SS:[EBP+08H]  ; Function parameter 1 (arg_0)
0040157D  B9 00004000  MOV ECX, 00400000H  
00401582  2BC1  SUB EAX, ECX  
00401584  50  PUSH EAX  
00401585  51  PUSH ECX  
00401586  E8 7BFEFFFF  CALL 00401406  
0040158B  59  POP ECX  
0040158C  59  POP ECX  
0040158D  85C0  TEST EAX, EAX  ; Check if EAX is zero
0040158F  7427  JZ 004015B8  
00401591  83782400  CMP DWORD PTR DS:[EAX+24H],00H  ; Compare with zero (null check)
00401595  7C21  JL 004015B8  
00401597  C745FC FEFFFFFF  MOV DWORD PTR SS:[EBP-04H],FFFFFFFEH  ; Local variable at [ebp-04H]
0040159E  B001  MOV AL, 01H  
004015A0  EB1F  JMP 004015C1  
004015A2  8B45EC  MOV EAX,DWORD PTR SS:[EBP-14H]  ; Local variable at [ebp-14H]
004015A5  8B00  MOV EAX,DWORD PTR DS:[EAX]  
004015A7  33C9  XOR ECX, ECX  
004015A9  8138 050000C0  CMP DWORD PTR DS:[EAX], C0000005H  
004015AF  0F94C1  SETE CL  
004015B2  8BC1  MOV EAX, ECX  
004015B4  C3  RET  ;Pop IP ; Return from function
004015B5  8B65E8  MOV ESP,DWORD PTR SS:[EBP-18H]  ; Function epilogue - restore stack pointer
004015B8  C745FC FEFFFFFF  MOV DWORD PTR SS:[EBP-04H],FFFFFFFEH  ; Local variable at [ebp-04H]
004015BF  32C0  XOR AL, AL  
004015C1  8B4DF0  MOV ECX,DWORD PTR SS:[EBP-10H]  ; Local variable at [ebp-10H]
004015C4  64:890D00000000  MOV DWORD PTR FS:[00000000H],ECX  
004015CB  59  POP ECX  
004015CC  5F  POP EDI  
004015CD  5E  POP ESI  
004015CE  5B  POP EBX  
004015CF  C9  LEAVE  ;Releases the local variables ; Function epilogue - restore stack frame
004015D0  C3  RET  ;Pop IP ; Return from function
004015D1  55  PUSH EBP  ; Function prologue - save frame pointer
004015D2  8BEC  MOV EBP, ESP  ; Function prologue - setup frame pointer
004015D4  E8 52070000  CALL 00401D2B  
004015D9  85C0  TEST EAX, EAX  ; Check if EAX is zero
004015DB  740F  JZ 004015EC  
004015DD  807D0800  CMP BYTE PTR SS:[EBP+08H],00H  ; Function parameter 1 (arg_0)
004015E1  7509  JNZ 004015EC  
004015E3  33C0  XOR EAX, EAX  ; Zero EAX (return 0 or clear register)
004015E5  B9 8C304000  MOV ECX, 0040308CH  
004015EA  8701  XCHG DWORD PTR DS:[ECX],EAX  
004015EC  5D  POP EBP  ; Function epilogue - restore frame pointer
004015ED  C3  RET  ;Pop IP ; Return from function
004015EE  55  PUSH EBP  ; Function prologue - save frame pointer
004015EF  8BEC  MOV EBP, ESP  ; Function prologue - setup frame pointer
004015F1  803D90304000 00  CMP BYTE PTR DS:[00403090H],00H  ; Compare with zero (null check)
004015F8  7406  JZ 00401600  
004015FA  807D0C00  CMP BYTE PTR SS:[EBP+0CH],00H  ; Function parameter 2 (arg_4)
004015FE  7512  JNZ 00401612  
00401600  FF7508  PUSH DWORD PTR SS:[EBP+08H]  ; Function parameter 1 (arg_0)
00401603  E8 02010000  CALL 0040170A  
00401608  FF7508  PUSH DWORD PTR SS:[EBP+08H]  ; Function parameter 1 (arg_0)
0040160B  E8 FA000000  CALL 0040170A  
00401610  59  POP ECX  
00401611  59  POP ECX  
00401612  B001  MOV AL, 01H  
00401614  5D  POP EBP  ; Function epilogue - restore frame pointer
00401615  C3  RET  ;Pop IP ; Return from function
00401616  55  PUSH EBP  ; Function prologue - save frame pointer
00401617  8BEC  MOV EBP, ESP  ; Function prologue - setup frame pointer
00401619  833D94304000 FF  CMP DWORD PTR DS:[00403094H],-01H  
00401620  FF7508  PUSH DWORD PTR SS:[EBP+08H]  ; Function parameter 1 (arg_0)
00401623  7507  JNZ 0040162C  
00401625  E8 D4080000  CALL 00401EFE  
0040162A  EB0B  JMP 00401637  
0040162C  68 94304000  PUSH 00403094H  
00401631  E8 C2080000  CALL 00401EF8  
00401636  59  POP ECX  
00401637  59  POP ECX  
00401638  33C9  XOR ECX, ECX  
0040163A  85C0  TEST EAX, EAX  ; Check if EAX is zero
0040163C  0F444D08  CMOVE ECX,DWORD PTR SS:[EBP+08H]  ; Function parameter 1 (arg_0)
00401640  8BC1  MOV EAX, ECX  
00401642  5D  POP EBP  ; Function epilogue - restore frame pointer
00401643  C3  RET  ;Pop IP ; Return from function
00401644  55  PUSH EBP  ; Function prologue - save frame pointer
00401645  8BEC  MOV EBP, ESP  ; Function prologue - setup frame pointer
00401647  FF7508  PUSH DWORD PTR SS:[EBP+08H]  ; Function parameter 1 (arg_0)
0040164A  E8 C7FFFFFF  CALL 00401616  
0040164F  F7D8  NEG EAX  
00401651  59  POP ECX  
00401652  1BC0  SBB EAX, EAX  
00401654  F7D8  NEG EAX  
00401656  48  DEC EAX  
00401657  5D  POP EBP  ; Function epilogue - restore frame pointer
00401658  C3  RET  ;Pop IP ; Return from function
00401659  55  PUSH EBP  ; Function prologue - save frame pointer
0040165A  8BEC  MOV EBP, ESP  ; Function prologue - setup frame pointer
    ; ====== Proc_0040165C Proc ======  
0040165C  83EC14  SUB ESP, 14H  ; Allocate stack space for local variables ( 14H bytes)
0040165F  8D45F4  LEA EAX,DWORD PTR SS:[EBP-0CH]  ; Local variable at [ebp-0CH]
00401662  0F57C0  XORPS XMM0,XMM0  
00401665  50  PUSH EAX  
00401666  66:0F1345F4  MOVLPS QWORD PTR SS:[EBP-0CH],XMM0  ; Local variable at [ebp-0CH]
0040166B  FF150C204000  CALL KERNEL32!GetSystemTimeAsFileTime  ; Call outside code section
00401671  8B45F8  MOV EAX,DWORD PTR SS:[EBP-08H]  ; Local variable at [ebp-08H]
00401674  3345F4  XOR EAX,DWORD PTR SS:[EBP-0CH]  ; Local variable at [ebp-0CH]
00401677  8945FC  MOV DWORD PTR SS:[EBP-04H],EAX  ; Local variable at [ebp-04H]
0040167A  FF1508204000  CALL KERNEL32!GetCurrentThreadId  ; Call outside code section
00401680  3145FC  XOR DWORD PTR SS:[EBP-04H],EAX  ; Local variable at [ebp-04H]
00401683  FF1504204000  CALL KERNEL32!GetCurrentProcessId  ; Call outside code section
00401689  3145FC  XOR DWORD PTR SS:[EBP-04H],EAX  ; Local variable at [ebp-04H]
0040168C  8D45EC  LEA EAX,DWORD PTR SS:[EBP-14H]  ; Local variable at [ebp-14H]
0040168F  50  PUSH EAX  
00401690  FF1500204000  CALL KERNEL32!QueryPerformanceCounter  ; Call outside code section
00401696  8B45F0  MOV EAX,DWORD PTR SS:[EBP-10H]  ; Local variable at [ebp-10H]
00401699  8D4DFC  LEA ECX,DWORD PTR SS:[EBP-04H]  ; Local variable at [ebp-04H]
0040169C  3345EC  XOR EAX,DWORD PTR SS:[EBP-14H]  ; Local variable at [ebp-14H]
0040169F  3345FC  XOR EAX,DWORD PTR SS:[EBP-04H]  ; Local variable at [ebp-04H]
004016A2  33C1  XOR EAX, ECX  
004016A4  C9  LEAVE  ;Releases the local variables ; Function epilogue - restore stack frame
004016A5  C3  RET  ;Pop IP ; Return from function
004016A6  8B0D40304000  MOV ECX,DWORD PTR DS:[00403040H]  
004016AC  56  PUSH ESI  ; Proc_0040165C endp
004016AD  57  PUSH EDI  
004016AE  BF 4EE640BB  MOV EDI, BB40E64EH  
004016B3  BE 0000FFFF  MOV ESI, FFFF0000H  
004016B8  3BCF  CMP ECX, EDI  
004016BA  7404  JZ 004016C0  
004016BC  85CE  TEST ESI, ECX  
004016BE  7526  JNZ 004016E6  
004016C0  E8 94FFFFFF  CALL 00401659  
004016C5  8BC8  MOV ECX, EAX  
004016C7  3BCF  CMP ECX, EDI  
004016C9  7507  JNZ 004016D2  
004016CB  B9 4FE640BB  MOV ECX, BB40E64FH  
004016D0  EB0E  JMP 004016E0  
004016D2  85CE  TEST ESI, ECX  
004016D4  750A  JNZ 004016E0  
004016D6  0D 11470000  OR EAX, 00004711H  
004016DB  C1E010  SHL EAX, 10H  
004016DE  0BC8  OR ECX, EAX  
004016E0  890D40304000  MOV DWORD PTR DS:[00403040H],ECX  
004016E6  F7D1  NOT ECX  
004016E8  5F  POP EDI  
004016E9  890D80304000  MOV DWORD PTR DS:[00403080H],ECX  
004016EF  5E  POP ESI  
004016F0  C3  RET  ;Pop IP ; Return from function
004016F1  33C0  XOR EAX, EAX  ; Zero EAX (return 0 or clear register)
004016F3  C3  RET  ;Pop IP ; Return from function
004016F4  33C0  XOR EAX, EAX  ; Zero EAX (return 0 or clear register)
004016F6  40  INC EAX  
004016F7  C3  RET  ;Pop IP ; Return from function
004016F8  B8 00400000  MOV EAX, 00004000H  
004016FD  C3  RET  ;Pop IP ; Return from function
004016FE  68 B0304000  PUSH 004030B0H  
00401703  FF1510204000  CALL KERNEL32!InitializeSListHead  ; Call outside code section
00401709  C3  RET  ;Pop IP ; Return from function
0040170A  B001  MOV AL, 01H  
    ; ====== Proc_0040170C Proc ======  
0040170C  C3  RET  ; Proc_0040170C endp ; Return from function
    ; ====== Proc_0040170D Proc ======  
0040170D  68 00000300  PUSH 00030000H  
00401712  68 00000100  PUSH 00010000H  ; Proc_0040170D endp
00401717  6A00  PUSH 00H  
00401719  E8 E6070000  CALL 00401F04  
0040171E  83C40C  ADD ESP, 0CH  
00401721  85C0  TEST EAX, EAX  ; Check if EAX is zero
00401723  7501  JNZ 00401726  
00401725  C3  RET  ;Pop IP ; Return from function
00401726  6A07  PUSH 07H  
00401728  E8 45000000  CALL 00401772  
0040172D  CC  INT3  
0040172E  C2 0000  RET 0000H  ; Return from function
00401731  B8 B8304000  MOV EAX, 004030B8H  
00401736  C3  RET  ;Pop IP ; Return from function
00401737  B8 C0304000  MOV EAX, 004030C0H  
0040173C  C3  RET  ;Pop IP ; Return from function
0040173D  E8 EFFFFFFF  CALL 00401731  
00401742  8B4804  MOV ECX,DWORD PTR DS:[EAX+04H]  
00401745  8308 24  OR DWORD PTR DS:[EAX],24H  
00401748  894804  MOV DWORD PTR DS:[EAX+04H],ECX  
0040174B  E8 E7FFFFFF  CALL 00401737  
00401750  8B4804  MOV ECX,DWORD PTR DS:[EAX+04H]  
00401753  8308 02  OR DWORD PTR DS:[EAX],02H  
00401756  894804  MOV DWORD PTR DS:[EAX+04H],ECX  
00401759  C3  RET  ;Pop IP ; Return from function
0040175A  33C0  XOR EAX, EAX  ; Zero EAX (return 0 or clear register)
0040175C  390524304000  CMP DWORD PTR DS:[00403024H],EAX  
00401762  0F94C0  SETE AL  
00401765  C3  RET  ;Pop IP ; Return from function
00401766  B8 F8334000  MOV EAX, 004033F8H  
0040176B  C3  RET  ;Pop IP ; Return from function
0040176C  B8 F4334000  MOV EAX, 004033F4H  
00401771  C3  RET  ;Pop IP ; Return from function
00401772  55  PUSH EBP  ; Function prologue - save frame pointer
00401773  8BEC  MOV EBP, ESP  ; Function prologue - setup frame pointer
    ; ====== Proc_00401775 Proc ======  
00401775  81EC 24030000  SUB ESP, 00000324H  ; Allocate stack space for local variables ( 00000324H bytes)
0040177B  56  PUSH ESI  
0040177C  6A17  PUSH 17H  
0040177E  FF1520204000  CALL KERNEL32!IsProcessorFeaturePresent  ; Call outside code section
00401784  85C0  TEST EAX, EAX  ; Check if EAX is zero
00401786  7405  JZ 0040178D  
00401788  8B4D08  MOV ECX,DWORD PTR SS:[EBP+08H]  ; Function parameter 1 (arg_0)
0040178B  CD 29  INT 29H  
0040178D  6A03  PUSH 03H  
0040178F  E8 9C010000  CALL 00401930  
00401794  C70424 CC020000  MOV DWORD PTR SS:[ESP],000002CCH  
0040179B  8D85 DCFCFFFF  LEA EAX,DWORD PTR SS:[EBP+FFFFFCDCH]  ; Function parameter at [ebp+FFFFFCDCH]
004017A1  6A00  PUSH 00H  
004017A3  50  PUSH EAX  
004017A4  E8 CB060000  CALL 00401E74  
004017A9  83C40C  ADD ESP, 0CH  
004017AC  8985 8CFDFFFF  MOV DWORD PTR SS:[EBP+FFFFFD8CH],EAX  ; Function parameter at [ebp+FFFFFD8CH]
004017B2  898D 88FDFFFF  MOV DWORD PTR SS:[EBP+FFFFFD88H],ECX  ; Function parameter at [ebp+FFFFFD88H]
004017B8  8995 84FDFFFF  MOV DWORD PTR SS:[EBP+FFFFFD84H],EDX  ; Function parameter at [ebp+FFFFFD84H]
004017BE  899D 80FDFFFF  MOV DWORD PTR SS:[EBP+FFFFFD80H],EBX  ; Function parameter at [ebp+FFFFFD80H]
004017C4  89B5 7CFDFFFF  MOV DWORD PTR SS:[EBP+FFFFFD7CH],ESI  ; Function parameter at [ebp+FFFFFD7CH]
004017CA  89BD 78FDFFFF  MOV DWORD PTR SS:[EBP+FFFFFD78H],EDI  ; Function parameter at [ebp+FFFFFD78H]
004017D0  66:8C95 A4FDFFFF  MOV WORD PTR SS:[EBP+FFFFFDA4H],SS  ; Function parameter at [ebp+FFFFFDA4H]
004017D7  66:8C8D 98FDFFFF  MOV WORD PTR SS:[EBP+FFFFFD98H],CS  ; Function parameter at [ebp+FFFFFD98H]
004017DE  66:8C9D 74FDFFFF  MOV WORD PTR SS:[EBP+FFFFFD74H],DS  ; Function parameter at [ebp+FFFFFD74H]
004017E5  66:8C85 70FDFFFF  MOV WORD PTR SS:[EBP+FFFFFD70H],ES  ; Function parameter at [ebp+FFFFFD70H]
004017EC  66:8CA5 6CFDFFFF  MOV WORD PTR SS:[EBP+FFFFFD6CH],FS  ; Function parameter at [ebp+FFFFFD6CH]
004017F3  66:8CAD 68FDFFFF  MOV WORD PTR SS:[EBP+FFFFFD68H],GS  ; Function parameter at [ebp+FFFFFD68H]
004017FA  9C  PUSHFD  
004017FB  8F85 9CFDFFFF  POP DWORD PTR SS:[EBP+FFFFFD9CH]  ; Function parameter at [ebp+FFFFFD9CH]
00401801  8B4504  MOV EAX,DWORD PTR SS:[EBP+04H]  
00401804  8985 94FDFFFF  MOV DWORD PTR SS:[EBP+FFFFFD94H],EAX  ; Function parameter at [ebp+FFFFFD94H]
0040180A  8D4504  LEA EAX,DWORD PTR SS:[EBP+04H]  
0040180D  8985 A0FDFFFF  MOV DWORD PTR SS:[EBP+FFFFFDA0H],EAX  ; Function parameter at [ebp+FFFFFDA0H]
00401813  C785 DCFCFFFF 01000100  MOV DWORD PTR SS:[EBP+FFFFFCDCH],00010001H  ; Function parameter at [ebp+FFFFFCDCH]
0040181D  8B40FC  MOV EAX,DWORD PTR DS:[EAX-04H]  
00401820  6A50  PUSH 50H  
00401822  8985 90FDFFFF  MOV DWORD PTR SS:[EBP+FFFFFD90H],EAX  ; Function parameter at [ebp+FFFFFD90H]
00401828  8D45A8  LEA EAX,DWORD PTR SS:[EBP-58H]  ; Local variable at [ebp-58H]
0040182B  6A00  PUSH 00H  
0040182D  50  PUSH EAX  
0040182E  E8 41060000  CALL 00401E74  
00401833  8B4504  MOV EAX,DWORD PTR SS:[EBP+04H]  
00401836  83C40C  ADD ESP, 0CH  
00401839  C745A8 15000040  MOV DWORD PTR SS:[EBP-58H],40000015H  ; Local variable at [ebp-58H]
00401840  C745AC 01000000  MOV DWORD PTR SS:[EBP-54H],00000001H  ; Local variable at [ebp-54H]
00401847  8945B4  MOV DWORD PTR SS:[EBP-4CH],EAX  ; Local variable at [ebp-4CH]
0040184A  FF1514204000  CALL KERNEL32!IsDebuggerPresent  ; Call outside code section
00401850  8BF0  MOV ESI, EAX  
00401852  8D45A8  LEA EAX,DWORD PTR SS:[EBP-58H]  ; Local variable at [ebp-58H]
00401855  8945F8  MOV DWORD PTR SS:[EBP-08H],EAX  ; Local variable at [ebp-08H]
00401858  8D85 DCFCFFFF  LEA EAX,DWORD PTR SS:[EBP+FFFFFCDCH]  ; Function parameter at [ebp+FFFFFCDCH]
0040185E  6A00  PUSH 00H  
00401860  8945FC  MOV DWORD PTR SS:[EBP-04H],EAX  ; Local variable at [ebp-04H]
00401863  FF151C204000  CALL KERNEL32!SetUnhandledExceptionFilter  ; Call outside code section
00401869  8D45F8  LEA EAX,DWORD PTR SS:[EBP-08H]  ; Local variable at [ebp-08H]
0040186C  50  PUSH EAX  
0040186D  FF1518204000  CALL KERNEL32!UnhandledExceptionFilter  ; Call outside code section
00401873  85C0  TEST EAX, EAX  ; Check if EAX is zero
00401875  750D  JNZ 00401884  
00401877  83FE01  CMP ESI, 01H  ; Compare with zero (null check)
0040187A  7408  JZ 00401884  
0040187C  6A03  PUSH 03H  
0040187E  E8 AD000000  CALL 00401930  
00401883  59  POP ECX  
00401884  5E  POP ESI  
00401885  C9  LEAVE  ;Releases the local variables ; Function epilogue - restore stack frame
00401886  C3  RET  ;Pop IP ; Return from function
00401887  E9 65FEFFFF  JMP 004016F1  
0040188C  6A00  PUSH 00H  ; Proc_00401775 endp
0040188E  FF1524204000  CALL KERNEL32!GetModuleHandleW  ; Call outside code section
00401894  85C0  TEST EAX, EAX  ; Check if EAX is zero
00401896  7433  JZ 004018CB  
00401898  B9 4D5A0000  MOV ECX, 00005A4DH  
0040189D  66:3908  CMP WORD PTR DS:[EAX],CX  
004018A0  7529  JNZ 004018CB  
004018A2  8B483C  MOV ECX,DWORD PTR DS:[EAX+3CH]  
004018A5  03C8  ADD ECX, EAX  
004018A7  8139 50450000  CMP DWORD PTR DS:[ECX], 00004550H  ; Compare with zero (null check)
004018AD  751C  JNZ 004018CB  
004018AF  B8 0B010000  MOV EAX, 0000010BH  
004018B4  66:394118  CMP WORD PTR DS:[ECX+18H],AX  
004018B8  7511  JNZ 004018CB  
004018BA  8379740E  CMP DWORD PTR DS:[ECX+74H],0EH  ; Compare with zero (null check)
004018BE  760B  JBE 004018CB  
004018C0  83B9 E800000000  CMP DWORD PTR DS:[ECX+000000E8H],00H  ; Compare with zero (null check)
004018C7  0F95C0  SETNE AL  
004018CA  C3  RET  ;Pop IP ; Return from function
004018CB  32C0  XOR AL, AL  
004018CD  C3  RET  ;Pop IP ; Return from function
004018CE  68 DD184000  PUSH 004018DDH  
004018D3  FF151C204000  CALL KERNEL32!SetUnhandledExceptionFilter  ; Call outside code section
004018D9  C3  RET  ;Pop IP ; Return from function
004018DA  55  PUSH EBP  ; Function prologue - save frame pointer
004018DB  8BEC  MOV EBP, ESP  ; Function prologue - setup frame pointer
004018DD  56  PUSH ESI  
004018DE  57  PUSH EDI  
004018DF  8B7D08  MOV EDI,DWORD PTR SS:[EBP+08H]  ; Function parameter 1 (arg_0)
004018E2  8B37  MOV ESI,DWORD PTR DS:[EDI]  
004018E4  813E 63736DE0  CMP DWORD PTR DS:[ESI], E06D7363H  
004018EA  7525  JNZ 00401911  
004018EC  837E1003  CMP DWORD PTR DS:[ESI+10H],03H  ; Compare with zero (null check)
004018F0  751F  JNZ 00401911  
004018F2  8B4614  MOV EAX,DWORD PTR DS:[ESI+14H]  
004018F5  3D 20059319  CMP EAX, 19930520H  
004018FA  741D  JZ 00401919  
004018FC  3D 21059319  CMP EAX, 19930521H  
00401901  7416  JZ 00401919  
00401903  3D 22059319  CMP EAX, 19930522H  
00401908  740F  JZ 00401919  
0040190A  3D 00409901  CMP EAX, 01994000H  ; Compare with zero (null check)
0040190F  7408  JZ 00401919  
00401911  5F  POP EDI  
00401912  33C0  XOR EAX, EAX  ; Zero EAX (return 0 or clear register)
00401914  5E  POP ESI  
00401915  5D  POP EBP  ; Function epilogue - restore frame pointer
00401916  C2 0400  RET 0004H  ; Return from function
00401919  E8 4A050000  CALL 00401E68  
0040191E  8930  MOV DWORD PTR DS:[EAX],ESI  
00401920  8B7704  MOV ESI,DWORD PTR DS:[EDI+04H]  
00401923  E8 46050000  CALL 00401E6E  
00401928  8930  MOV DWORD PTR DS:[EAX],ESI  
0040192A  E8 DB050000  CALL 00401F0A  
0040192F  CC  INT3  
00401930  C705C8304000 00000000  MOV DWORD PTR DS:[004030C8H],00000000H  
0040193A  C3  RET  ;Pop IP ; Return from function
0040193B  53  PUSH EBX  
0040193C  56  PUSH ESI  
0040193D  BE B8244000  MOV ESI, 004024B8H  
00401942  BB B8244000  MOV EBX, 004024B8H  
00401947  3BF3  CMP ESI, EBX  
00401949  7319  JNB 00401964  
0040194B  57  PUSH EDI  
0040194C  8B3E  MOV EDI,DWORD PTR DS:[ESI]  
0040194E  85FF  TEST EDI, EDI  
00401950  740A  JZ 0040195C  
00401952  8BCF  MOV ECX, EDI  
00401954  FF15BC204000  CALL DWORD PTR DS:[004020BCH]  
0040195A  FFD7  CALL EDI  
0040195C  83C604  ADD ESI, 04H  
0040195F  3BF3  CMP ESI, EBX  
00401961  72E9  JB 0040194C  
00401963  5F  POP EDI  
00401964  5E  POP ESI  
00401965  5B  POP EBX  
00401966  C3  RET  ;Pop IP ; Return from function
00401967  53  PUSH EBX  
00401968  56  PUSH ESI  
00401969  BE C0244000  MOV ESI, 004024C0H  
0040196E  BB C0244000  MOV EBX, 004024C0H  
00401973  3BF3  CMP ESI, EBX  
00401975  7319  JNB 00401990  
00401977  57  PUSH EDI  
00401978  8B3E  MOV EDI,DWORD PTR DS:[ESI]  
0040197A  85FF  TEST EDI, EDI  
0040197C  740A  JZ 00401988  
0040197E  8BCF  MOV ECX, EDI  
00401980  FF15BC204000  CALL DWORD PTR DS:[004020BCH]  
00401986  FFD7  CALL EDI  
00401988  83C604  ADD ESI, 04H  
0040198B  3BF3  CMP ESI, EBX  
0040198D  72E9  JB 00401978  
0040198F  5F  POP EDI  
00401990  5E  POP ESI  
00401991  5B  POP EBX  
00401992  C3  RET  ;Pop IP ; Return from function
00401993  CC  INT3  
00401994  CC  INT3  
00401995  CC  INT3  
00401996  CC  INT3  
00401997  CC  INT3  
00401998  CC  INT3  
00401999  CC  INT3  
0040199A  CC  INT3  
0040199B  CC  INT3  
0040199C  CC  INT3  
0040199D  68 E5194000  PUSH 004019E5H  
004019A2  64:FF3500000000  PUSH DWORD PTR FS:[00000000H]  
004019A9  8B442410  MOV EAX,DWORD PTR SS:[ESP+10H]  
004019AD  896C2410  MOV DWORD PTR SS:[ESP+10H],EBP  
004019B1  8D6C2410  LEA EBP,DWORD PTR SS:[ESP+10H]  
004019B5  2BE0  SUB ESP, EAX  ; Allocate stack space for local variables ( EAX bytes)
004019B7  53  PUSH EBX  
004019B8  56  PUSH ESI  
004019B9  57  PUSH EDI  
004019BA  A1 40304000  MOV EAX, DWORD PTR DS:[00403040H]  
004019BF  3145FC  XOR DWORD PTR SS:[EBP-04H],EAX  ; Local variable at [ebp-04H]
004019C2  33C5  XOR EAX, EBP  
004019C4  50  PUSH EAX  
004019C5  8965E8  MOV DWORD PTR SS:[EBP-18H],ESP  ; Local variable at [ebp-18H]
004019C8  FF75F8  PUSH DWORD PTR SS:[EBP-08H]  ; Local variable at [ebp-08H]
004019CB  8B45FC  MOV EAX,DWORD PTR SS:[EBP-04H]  ; Local variable at [ebp-04H]
004019CE  C745FC FEFFFFFF  MOV DWORD PTR SS:[EBP-04H],FFFFFFFEH  ; Local variable at [ebp-04H]
004019D5  8945F8  MOV DWORD PTR SS:[EBP-08H],EAX  ; Local variable at [ebp-08H]
004019D8  8D45F0  LEA EAX,DWORD PTR SS:[EBP-10H]  ; Local variable at [ebp-10H]
004019DB  64:A3 00000000  MOV DWORD PTR FS:[00000000H], EAX  
004019E1  C3  RET  ;Pop IP ; Return from function
004019E2  55  PUSH EBP  ; Function prologue - save frame pointer
004019E3  8BEC  MOV EBP, ESP  ; Function prologue - setup frame pointer
004019E5  56  PUSH ESI  
004019E6  8B7508  MOV ESI,DWORD PTR SS:[EBP+08H]  ; Function parameter 1 (arg_0)
004019E9  FF36  PUSH DWORD PTR DS:[ESI]  
004019EB  E8 20050000  CALL 00401F10  
004019F0  FF7514  PUSH DWORD PTR SS:[EBP+14H]  ; Function parameter at [ebp+14H]
004019F3  8906  MOV DWORD PTR DS:[ESI],EAX  
004019F5  FF7510  PUSH DWORD PTR SS:[EBP+10H]  ; Function parameter 3 (arg_8)
004019F8  FF750C  PUSH DWORD PTR SS:[EBP+0CH]  ; Function parameter 2 (arg_4)
004019FB  56  PUSH ESI  
004019FC  68 3A1D4000  PUSH 00401D3AH  ;ASCIIZ: ";@0@",0
00401A01  68 40304000  PUSH 00403040H  
00401A06  E8 6F040000  CALL 00401E7A  
00401A0B  83C41C  ADD ESP, 1CH  
00401A0E  5E  POP ESI  
00401A0F  5D  POP EBP  ; Function epilogue - restore frame pointer
00401A10  C3  RET  ;Pop IP ; Return from function
00401A11  55  PUSH EBP  ; Function prologue - save frame pointer
00401A12  8BEC  MOV EBP, ESP  ; Function prologue - setup frame pointer
    ; ====== Proc_00401A14 Proc ======  
00401A14  830D38304000 01  OR DWORD PTR DS:[00403038H],01H  
00401A1B  83EC28  SUB ESP, 28H  ; Allocate stack space for local variables ( 28H bytes)
00401A1E  C705D0304000 00000000  MOV DWORD PTR DS:[004030D0H],00000000H  
00401A28  6A0A  PUSH 0AH  
00401A2A  FF1520204000  CALL KERNEL32!IsProcessorFeaturePresent  ; Call outside code section
00401A30  85C0  TEST EAX, EAX  ; Check if EAX is zero
00401A32  0F84 EF020000  JZ 00401D27  
00401A38  53  PUSH EBX  
00401A39  56  PUSH ESI  
00401A3A  57  PUSH EDI  
00401A3B  33C0  XOR EAX, EAX  ; Zero EAX (return 0 or clear register)
00401A3D  8D7DD8  LEA EDI,DWORD PTR SS:[EBP-28H]  ; Local variable at [ebp-28H]
00401A40  33C9  XOR ECX, ECX  
00401A42  53  PUSH EBX  
00401A43  0FA2  CPUID  
00401A45  8BF3  MOV ESI, EBX  
00401A47  5B  POP EBX  
00401A48  90  NOP  
00401A49  8907  MOV DWORD PTR DS:[EDI],EAX  
00401A4B  897704  MOV DWORD PTR DS:[EDI+04H],ESI  
00401A4E  894F08  MOV DWORD PTR DS:[EDI+08H],ECX  
00401A51  89570C  MOV DWORD PTR DS:[EDI+0CH],EDX  
00401A54  8B45D8  MOV EAX,DWORD PTR SS:[EBP-28H]  ; Local variable at [ebp-28H]
00401A57  8B4DE4  MOV ECX,DWORD PTR SS:[EBP-1CH]  ; Local variable at [ebp-1CH]
00401A5A  8945FC  MOV DWORD PTR SS:[EBP-04H],EAX  ; Local variable at [ebp-04H]
00401A5D  81F1 696E6549  XOR ECX, 49656E69H  
00401A63  8B45E0  MOV EAX,DWORD PTR SS:[EBP-20H]  ; Local variable at [ebp-20H]
00401A66  35 6E74656C  XOR EAX, 6C65746EH  
00401A6B  0BC8  OR ECX, EAX  
00401A6D  8B45DC  MOV EAX,DWORD PTR SS:[EBP-24H]  ; Local variable at [ebp-24H]
00401A70  6A01  PUSH 01H  
00401A72  35 47656E75  XOR EAX, 756E6547H  
00401A77  0BC8  OR ECX, EAX  
00401A79  58  POP EAX  
00401A7A  6A00  PUSH 00H  
00401A7C  59  POP ECX  
00401A7D  53  PUSH EBX  
00401A7E  0FA2  CPUID  
00401A80  8BF3  MOV ESI, EBX  
00401A82  5B  POP EBX  
00401A83  90  NOP  
00401A84  8907  MOV DWORD PTR DS:[EDI],EAX  
00401A86  897704  MOV DWORD PTR DS:[EDI+04H],ESI  
00401A89  894F08  MOV DWORD PTR DS:[EDI+08H],ECX  
00401A8C  89570C  MOV DWORD PTR DS:[EDI+0CH],EDX  
00401A8F  7539  JNZ 00401ACA  
00401A91  8B45D8  MOV EAX,DWORD PTR SS:[EBP-28H]  ; Local variable at [ebp-28H]
00401A94  25 F03FFF0F  AND EAX, 0FFF3FF0H  
00401A99  3D C0060100  CMP EAX, 000106C0H  ; Compare with zero (null check)
00401A9E  7423  JZ 00401AC3  
00401AA0  3D 60060200  CMP EAX, 00020660H  ; Compare with zero (null check)
00401AA5  741C  JZ 00401AC3  
00401AA7  3D 70060200  CMP EAX, 00020670H  ; Compare with zero (null check)
00401AAC  7415  JZ 00401AC3  
00401AAE  3D 50060300  CMP EAX, 00030650H  ; Compare with zero (null check)
00401AB3  740E  JZ 00401AC3  
00401AB5  3D 60060300  CMP EAX, 00030660H  ; Compare with zero (null check)
00401ABA  7407  JZ 00401AC3  
00401ABC  3D 70060300  CMP EAX, 00030670H  ; Compare with zero (null check)
00401AC1  7507  JNZ 00401ACA  
00401AC3  830DD4304000 01  OR DWORD PTR DS:[004030D4H],01H  
00401ACA  8B55E0  MOV EDX,DWORD PTR SS:[EBP-20H]  ; Local variable at [ebp-20H]
00401ACD  33DB  XOR EBX, EBX  
00401ACF  33FF  XOR EDI, EDI  
00401AD1  8955F4  MOV DWORD PTR SS:[EBP-0CH],EDX  ; Local variable at [ebp-0CH]
00401AD4  837DFC07  CMP DWORD PTR SS:[EBP-04H],07H  ; Local variable at [ebp-04H]
00401AD8  895DEC  MOV DWORD PTR SS:[EBP-14H],EBX  ; Local variable at [ebp-14H]
00401ADB  895DE8  MOV DWORD PTR SS:[EBP-18H],EBX  ; Local variable at [ebp-18H]
00401ADE  0F8C 87000000  JL 00401B6B  
00401AE4  6A07  PUSH 07H  
00401AE6  58  POP EAX  
00401AE7  33C9  XOR ECX, ECX  
00401AE9  53  PUSH EBX  
00401AEA  0FA2  CPUID  
00401AEC  8BF3  MOV ESI, EBX  
00401AEE  5B  POP EBX  
00401AEF  90  NOP  
00401AF0  8D5DD8  LEA EBX,DWORD PTR SS:[EBP-28H]  ; Local variable at [ebp-28H]
00401AF3  8903  MOV DWORD PTR DS:[EBX],EAX  
00401AF5  897304  MOV DWORD PTR DS:[EBX+04H],ESI  
00401AF8  894B08  MOV DWORD PTR DS:[EBX+08H],ECX  
00401AFB  89530C  MOV DWORD PTR DS:[EBX+0CH],EDX  
00401AFE  8B5DDC  MOV EBX,DWORD PTR SS:[EBP-24H]  ; Local variable at [ebp-24H]
00401B01  8B45E4  MOV EAX,DWORD PTR SS:[EBP-1CH]  ; Local variable at [ebp-1CH]
00401B04  895DF8  MOV DWORD PTR SS:[EBP-08H],EBX  ; Local variable at [ebp-08H]
00401B07  8945EC  MOV DWORD PTR SS:[EBP-14H],EAX  ; Local variable at [ebp-14H]
00401B0A  F7C3 00020000  TEST EBX,00000200H  
00401B10  7407  JZ 00401B19  
00401B12  830DD4304000 02  OR DWORD PTR DS:[004030D4H],02H  
00401B19  837DD801  CMP DWORD PTR SS:[EBP-28H],01H  ; Local variable at [ebp-28H]
00401B1D  7C24  JL 00401B43  
00401B1F  6A07  PUSH 07H  
00401B21  58  POP EAX  
00401B22  33C9  XOR ECX, ECX  
00401B24  41  INC ECX  
00401B25  53  PUSH EBX  
00401B26  0FA2  CPUID  
00401B28  8BF3  MOV ESI, EBX  
00401B2A  5B  POP EBX  
00401B2B  90  NOP  
00401B2C  8D5DD8  LEA EBX,DWORD PTR SS:[EBP-28H]  ; Local variable at [ebp-28H]
00401B2F  8903  MOV DWORD PTR DS:[EBX],EAX  
00401B31  897304  MOV DWORD PTR DS:[EBX+04H],ESI  
00401B34  894B08  MOV DWORD PTR DS:[EBX+08H],ECX  
00401B37  89530C  MOV DWORD PTR DS:[EBX+0CH],EDX  
00401B3A  8B45E4  MOV EAX,DWORD PTR SS:[EBP-1CH]  ; Local variable at [ebp-1CH]
00401B3D  8B5DF8  MOV EBX,DWORD PTR SS:[EBP-08H]  ; Local variable at [ebp-08H]
00401B40  8945E8  MOV DWORD PTR SS:[EBP-18H],EAX  ; Local variable at [ebp-18H]
00401B43  6A24  PUSH 24H  
00401B45  58  POP EAX  
00401B46  3945FC  CMP DWORD PTR SS:[EBP-04H],EAX  ; Local variable at [ebp-04H]
00401B49  7C1D  JL 00401B68  
00401B4B  33C9  XOR ECX, ECX  
00401B4D  8D7DD8  LEA EDI,DWORD PTR SS:[EBP-28H]  ; Local variable at [ebp-28H]
00401B50  53  PUSH EBX  
00401B51  0FA2  CPUID  
00401B53  8BF3  MOV ESI, EBX  
00401B55  5B  POP EBX  
00401B56  90  NOP  
00401B57  8B5DF8  MOV EBX,DWORD PTR SS:[EBP-08H]  ; Local variable at [ebp-08H]
00401B5A  8907  MOV DWORD PTR DS:[EDI],EAX  
00401B5C  897704  MOV DWORD PTR DS:[EDI+04H],ESI  
00401B5F  894F08  MOV DWORD PTR DS:[EDI+08H],ECX  
00401B62  89570C  MOV DWORD PTR DS:[EDI+0CH],EDX  
00401B65  8B7DDC  MOV EDI,DWORD PTR SS:[EBP-24H]  ; Local variable at [ebp-24H]
00401B68  8B55F4  MOV EDX,DWORD PTR SS:[EBP-0CH]  ; Local variable at [ebp-0CH]
00401B6B  A1 38304000  MOV EAX, DWORD PTR DS:[00403038H]  
00401B70  8B0D30304000  MOV ECX,DWORD PTR DS:[00403030H]  
00401B76  83C802  OR EAX, 02H  
00401B79  8B3534304000  MOV ESI,DWORD PTR DS:[00403034H]  
00401B7F  83E1FE  AND ECX, -02H  
00401B82  C705D0304000 01000000  MOV DWORD PTR DS:[004030D0H],00000001H  
00401B8C  A3 38304000  MOV DWORD PTR DS:[00403038H], EAX  
00401B91  890D30304000  MOV DWORD PTR DS:[00403030H],ECX  
00401B97  893534304000  MOV DWORD PTR DS:[00403034H],ESI  
00401B9D  F7C2 00001000  TEST EDX,00100000H  
00401BA3  0F84 7B010000  JZ 00401D24  
00401BA9  83C804  OR EAX, 04H  
00401BAC  C705D0304000 02000000  MOV DWORD PTR DS:[004030D0H],00000002H  
00401BB6  A3 38304000  MOV DWORD PTR DS:[00403038H], EAX  
00401BBB  83E1EF  AND ECX, -11H  
00401BBE  B8 00000018  MOV EAX, 18000000H  
00401BC3  890D30304000  MOV DWORD PTR DS:[00403030H],ECX  
00401BC9  23D0  AND EDX, EAX  
00401BCB  893534304000  MOV DWORD PTR DS:[00403034H],ESI  
00401BD1  3BD0  CMP EDX, EAX  
00401BD3  0F85 4B010000  JNZ 00401D24  
00401BD9  33C9  XOR ECX, ECX  
00401BDB  0F01D0  LGDT EAX  
00401BDE  8945F0  MOV DWORD PTR SS:[EBP-10H],EAX  ; Local variable at [ebp-10H]
00401BE1  33F6  XOR ESI, ESI  
00401BE3  8955F4  MOV DWORD PTR SS:[EBP-0CH],EDX  ; Local variable at [ebp-0CH]
00401BE6  8B45F0  MOV EAX,DWORD PTR SS:[EBP-10H]  ; Local variable at [ebp-10H]
00401BE9  8B4DF4  MOV ECX,DWORD PTR SS:[EBP-0CH]  ; Local variable at [ebp-0CH]
00401BEC  83E006  AND EAX, 06H  
00401BEF  23CE  AND ECX, ESI  
00401BF1  83F806  CMP EAX, 06H  ; Compare with zero (null check)
00401BF4  0F85 2A010000  JNZ 00401D24  
00401BFA  3BCE  CMP ECX, ESI  
00401BFC  0F85 22010000  JNZ 00401D24  
00401C02  A1 38304000  MOV EAX, DWORD PTR DS:[00403038H]  
00401C07  83C808  OR EAX, 08H  
00401C0A  C705D0304000 03000000  MOV DWORD PTR DS:[004030D0H],00000003H  
00401C14  A3 38304000  MOV DWORD PTR DS:[00403038H], EAX  
00401C19  F6C320  TEST BL,20H  
00401C1C  7479  JZ 00401C97  
00401C1E  8B0D34304000  MOV ECX,DWORD PTR DS:[00403034H]  
00401C24  83C820  OR EAX, 20H  
00401C27  A3 38304000  MOV DWORD PTR DS:[00403038H], EAX  
00401C2C  BA 000003D0  MOV EDX, D0030000H  
00401C31  A1 30304000  MOV EAX, DWORD PTR DS:[00403030H]  
00401C36  23DA  AND EBX, EDX  
00401C38  83E0FD  AND EAX, -03H  
00401C3B  C705D0304000 05000000  MOV DWORD PTR DS:[004030D0H],00000005H  
00401C45  A3 30304000  MOV DWORD PTR DS:[00403030H], EAX  
00401C4A  890D34304000  MOV DWORD PTR DS:[00403034H],ECX  
00401C50  3BDA  CMP EBX, EDX  
00401C52  754E  JNZ 00401CA2  
00401C54  8B45F0  MOV EAX,DWORD PTR SS:[EBP-10H]  ; Local variable at [ebp-10H]
00401C57  BA E0000000  MOV EDX, 000000E0H  
00401C5C  8B4DF4  MOV ECX,DWORD PTR SS:[EBP-0CH]  ; Local variable at [ebp-0CH]
00401C5F  23C2  AND EAX, EDX  
00401C61  23CE  AND ECX, ESI  
00401C63  3BC2  CMP EAX, EDX  
00401C65  7530  JNZ 00401C97  
00401C67  3BCE  CMP ECX, ESI  
00401C69  752C  JNZ 00401C97  
00401C6B  A1 30304000  MOV EAX, DWORD PTR DS:[00403030H]  
00401C70  830D38304000 40  OR DWORD PTR DS:[00403038H],40H  
00401C77  83E0DB  AND EAX, -25H  
00401C7A  8B0D34304000  MOV ECX,DWORD PTR DS:[00403034H]  
00401C80  C705D0304000 06000000  MOV DWORD PTR DS:[004030D0H],00000006H  
00401C8A  A3 30304000  MOV DWORD PTR DS:[00403030H], EAX  
00401C8F  890D34304000  MOV DWORD PTR DS:[00403034H],ECX  
00401C95  EB0B  JMP 00401CA2  
00401C97  8B0D34304000  MOV ECX,DWORD PTR DS:[00403034H]  
00401C9D  A1 30304000  MOV EAX, DWORD PTR DS:[00403030H]  
00401CA2  F745EC 00008000  TEST DWORD PTR SS:[EBP-14H],00800000H  ; Local variable at [ebp-14H]
00401CA9  7410  JZ 00401CBB  
00401CAB  25 FFFFFFFE  AND EAX, FEFFFFFFH  
00401CB0  890D34304000  MOV DWORD PTR DS:[00403034H],ECX  
00401CB6  A3 30304000  MOV DWORD PTR DS:[00403030H], EAX  
00401CBB  F745E8 00000800  TEST DWORD PTR SS:[EBP-18H],00080000H  ; Local variable at [ebp-18H]
00401CC2  7460  JZ 00401D24  
00401CC4  8B45F0  MOV EAX,DWORD PTR SS:[EBP-10H]  ; Local variable at [ebp-10H]
00401CC7  BA E0000000  MOV EDX, 000000E0H  
00401CCC  8B4DF4  MOV ECX,DWORD PTR SS:[EBP-0CH]  ; Local variable at [ebp-0CH]
00401CCF  23C2  AND EAX, EDX  
00401CD1  23CE  AND ECX, ESI  
00401CD3  3BC2  CMP EAX, EDX  
00401CD5  754D  JNZ 00401D24  
00401CD7  3BCE  CMP ECX, ESI  
00401CD9  7549  JNZ 00401D24  
00401CDB  8BC7  MOV EAX, EDI  
00401CDD  33C9  XOR ECX, ECX  
00401CDF  C1EF10  SHR EDI, 10H  
00401CE2  25 FF000400  AND EAX, 000400FFH  
00401CE7  83E706  AND EDI, 06H  
00401CEA  A3 CC304000  MOV DWORD PTR DS:[004030CCH], EAX  
00401CEF  81CF 29000001  OR EDI, 01000029H  
00401CF5  F7D1  NOT ECX  
00401CF7  230D34304000  AND ECX,DWORD PTR DS:[00403034H]  
00401CFD  F7D7  NOT EDI  
00401CFF  233D30304000  AND EDI,DWORD PTR DS:[00403030H]  
00401D05  893D30304000  MOV DWORD PTR DS:[00403030H],EDI  
00401D0B  890D34304000  MOV DWORD PTR DS:[00403034H],ECX  
00401D11  3C01  CMP AL, 01H  ; Compare with zero (null check)
00401D13  760F  JBE 00401D24  
00401D15  83E7BF  AND EDI, -41H  
00401D18  890D34304000  MOV DWORD PTR DS:[00403034H],ECX  
00401D1E  893D30304000  MOV DWORD PTR DS:[00403030H],EDI  
00401D24  5F  POP EDI  
00401D25  5E  POP ESI  
00401D26  5B  POP EBX  
00401D27  33C0  XOR EAX, EAX  ; Zero EAX (return 0 or clear register)
00401D29  C9  LEAVE  ;Releases the local variables ; Function epilogue - restore stack frame
00401D2A  C3  RET  ;Pop IP ; Return from function
00401D2B  33C0  XOR EAX, EAX  ; Zero EAX (return 0 or clear register)
    ; ====== Proc_00401D2D Proc ======  
00401D2D  390584304000  CMP DWORD PTR DS:[00403084H],EAX  ; Proc_00401A14 endp
00401D33  0F95C0  SETNE AL  
00401D36  C3  RET  ;Pop IP ; Return from function
00401D37  3B0D40304000  CMP ECX,DWORD PTR DS:[00403040H]  
00401D3D  7501  JNZ 00401D40  
00401D3F  C3  RET  ;Pop IP ; Return from function
00401D40  E9 28000000  JMP 00401D6D  
00401D45  55  PUSH EBP  ; Function prologue - save frame pointer
00401D46  8BEC  MOV EBP, ESP  ; Function prologue - setup frame pointer
    ; ====== Proc_00401D48 Proc ======  
00401D48  6A00  PUSH 00H  
00401D4A  FF151C204000  CALL KERNEL32!SetUnhandledExceptionFilter  ; Call outside code section
00401D50  FF7508  PUSH DWORD PTR SS:[EBP+08H]  ; Function parameter 1 (arg_0)
00401D53  FF1518204000  CALL KERNEL32!UnhandledExceptionFilter  ; Call outside code section
00401D59  68 090400C0  PUSH C0000409H  
00401D5E  FF1528204000  CALL KERNEL32!GetCurrentProcess  ; Call outside code section
00401D64  50  PUSH EAX  
00401D65  FF152C204000  CALL KERNEL32!TerminateProcess  ; Call outside code section
00401D6B  5D  POP EBP  ; Function epilogue - restore frame pointer
00401D6C  C3  RET  ;Pop IP ; Return from function
00401D6D  55  PUSH EBP  ; Function prologue - save frame pointer
00401D6E  8BEC  MOV EBP, ESP  ; Function prologue - setup frame pointer
00401D70  81EC 24030000  SUB ESP, 00000324H  ; Proc_00401D48 endp ; Allocate stack space for local variables ( 00000324H bytes)
00401D76  6A17  PUSH 17H  
00401D78  FF1520204000  CALL KERNEL32!IsProcessorFeaturePresent  ; Call outside code section
00401D7E  85C0  TEST EAX, EAX  ; Check if EAX is zero
00401D80  7405  JZ 00401D87  
00401D82  6A02  PUSH 02H  
00401D84  59  POP ECX  
00401D85  CD 29  INT 29H  
00401D87  A3 D8314000  MOV DWORD PTR DS:[004031D8H], EAX  
00401D8C  890DD4314000  MOV DWORD PTR DS:[004031D4H],ECX  
00401D92  8915D0314000  MOV DWORD PTR DS:[004031D0H],EDX  
00401D98  891DCC314000  MOV DWORD PTR DS:[004031CCH],EBX  
00401D9E  8935C8314000  MOV DWORD PTR DS:[004031C8H],ESI  
00401DA4  893DC4314000  MOV DWORD PTR DS:[004031C4H],EDI  
00401DAA  66:8C15F0314000  MOV WORD PTR DS:[004031F0H],SS  
00401DB1  66:8C0DE4314000  MOV WORD PTR DS:[004031E4H],CS  
00401DB8  66:8C1DC0314000  MOV WORD PTR DS:[004031C0H],DS  
00401DBF  66:8C05BC314000  MOV WORD PTR DS:[004031BCH],ES  
00401DC6  66:8C25B8314000  MOV WORD PTR DS:[004031B8H],FS  
00401DCD  66:8C2DB4314000  MOV WORD PTR DS:[004031B4H],GS  
00401DD4  9C  PUSHFD  
00401DD5  8F05E8314000  POP DWORD PTR DS:[004031E8H]  
00401DDB  8B4500  MOV EAX,DWORD PTR SS:[EBP+00H]  
00401DDE  A3 DC314000  MOV DWORD PTR DS:[004031DCH], EAX  
00401DE3  8B4504  MOV EAX,DWORD PTR SS:[EBP+04H]  
00401DE6  A3 E0314000  MOV DWORD PTR DS:[004031E0H], EAX  
00401DEB  8D4508  LEA EAX,DWORD PTR SS:[EBP+08H]  ; Function parameter 1 (arg_0)
00401DEE  A3 EC314000  MOV DWORD PTR DS:[004031ECH], EAX  
00401DF3  8B85 DCFCFFFF  MOV EAX,DWORD PTR SS:[EBP+FFFFFCDCH]  ; Function parameter at [ebp+FFFFFCDCH]
00401DF9  C70528314000 01000100  MOV DWORD PTR DS:[00403128H],00010001H  
00401E03  A1 E0314000  MOV EAX, DWORD PTR DS:[004031E0H]  
00401E08  A3 E4304000  MOV DWORD PTR DS:[004030E4H], EAX  
00401E0D  C705D8304000 090400C0  MOV DWORD PTR DS:[004030D8H],C0000409H  
00401E17  C705DC304000 01000000  MOV DWORD PTR DS:[004030DCH],00000001H  
00401E21  C705E8304000 01000000  MOV DWORD PTR DS:[004030E8H],00000001H  
00401E2B  6A04  PUSH 04H  
00401E2D  58  POP EAX  
00401E2E  6BC000  IMUL EAX,EAX,00H  
00401E31  C780 EC304000 02000000  MOV DWORD PTR DS:[EAX+004030ECH],00000002H  
00401E3B  6A04  PUSH 04H  
00401E3D  58  POP EAX  
00401E3E  6BC000  IMUL EAX,EAX,00H  
00401E41  8B0D40304000  MOV ECX,DWORD PTR DS:[00403040H]  
00401E47  894C05F8  MOV DWORD PTR DS:[EAX+EBP-08H],ECX  
00401E4B  6A04  PUSH 04H  
00401E4D  58  POP EAX  
00401E4E  C1E000  SHL EAX, 00H  
00401E51  8B0D80304000  MOV ECX,DWORD PTR DS:[00403080H]  
00401E57  894C05F8  MOV DWORD PTR DS:[EAX+EBP-08H],ECX  
00401E5B  68 F0204000  PUSH 004020F0H  
00401E60  E8 E0FEFFFF  CALL 00401D45  
00401E65  90  NOP  
00401E66  C9  LEAVE  ;Releases the local variables ; Function epilogue - restore stack frame
00401E67  C3  RET  ;Pop IP ; Return from function
    ; ====== Proc_00401E68 Proc ======  
00401E68  FF2534204000  JMP [VCRUNTIME140!__current_exception]  
    ; ====== Proc_00401E6E Proc ======  
00401E6E  FF2538204000  JMP [VCRUNTIME140!__current_exception_context]  
00401E74  FF253C204000  JMP [VCRUNTIME140!memset]  
00401E7A  FF2540204000  JMP [VCRUNTIME140!_except_handler4_common]  
00401E80  FF258C204000  JMP [api-ms-win-crt-runtime-l1-1-0!_seh_filter_exe]  
00401E86  FF2560204000  JMP [api-ms-win-crt-runtime-l1-1-0!_set_app_type]  
00401E8C  FF2558204000  JMP [api-ms-win-crt-math-l1-1-0!__setusermatherr]  
00401E92  FF2588204000  JMP [api-ms-win-crt-runtime-l1-1-0!_configure_narrow_argv]  
00401E98  FF2570204000  JMP [api-ms-win-crt-runtime-l1-1-0!_initialize_narrow_environment]  
00401E9E  FF2590204000  JMP [api-ms-win-crt-runtime-l1-1-0!_get_initial_narrow_environment]  
00401EA4  FF25A8204000  JMP [api-ms-win-crt-runtime-l1-1-0!_initterm]  
00401EAA  FF2564204000  JMP [api-ms-win-crt-runtime-l1-1-0!_initterm_e]  
00401EB0  FF2568204000  JMP [api-ms-win-crt-runtime-l1-1-0!exit]  
00401EB6  FF256C204000  JMP [api-ms-win-crt-runtime-l1-1-0!_exit]  
00401EBC  FF25B0204000  JMP [api-ms-win-crt-stdio-l1-1-0!_set_fmode]  
00401EC2  FF2574204000  JMP [api-ms-win-crt-runtime-l1-1-0!__p___argc]  
00401EC8  FF2578204000  JMP [api-ms-win-crt-runtime-l1-1-0!__p___argv]  
00401ECE  FF257C204000  JMP [api-ms-win-crt-runtime-l1-1-0!_cexit]  
00401ED4  FF2580204000  JMP [api-ms-win-crt-runtime-l1-1-0!_c_exit]  
00401EDA  FF2584204000  JMP [api-ms-win-crt-runtime-l1-1-0!_register_thread_local_exe_atexit_callback]  
00401EE0  FF2550204000  JMP [api-ms-win-crt-locale-l1-1-0!_configthreadlocale]  
00401EE6  FF2548204000  JMP [api-ms-win-crt-heap-l1-1-0!_set_new_mode]  
00401EEC  FF25B4204000  JMP [api-ms-win-crt-stdio-l1-1-0!__p__commode]  
00401EF2  FF2594204000  JMP [api-ms-win-crt-runtime-l1-1-0!_initialize_onexit_table]  
00401EF8  FF2598204000  JMP [api-ms-win-crt-runtime-l1-1-0!_register_onexit_function]  
00401EFE  FF259C204000  JMP [api-ms-win-crt-runtime-l1-1-0!_crt_atexit]  
00401F04  FF25A0204000  JMP [api-ms-win-crt-runtime-l1-1-0!_controlfp_s]  
    ; ====== Proc_00401F0A Proc ======  
00401F0A  FF25A4204000  JMP [api-ms-win-crt-runtime-l1-1-0!terminate]  
00401F10  55  PUSH EBP  ; Function prologue - save frame pointer
    ; ====== Proc_00401F11 Proc ======  
00401F11  8BEC  MOV EBP, ESP  ; Function prologue - setup frame pointer
00401F13  51  PUSH ECX  
00401F14  833DD0304000 01  CMP DWORD PTR DS:[004030D0H],01H  ; Compare with zero (null check)
00401F1B  8B4D08  MOV ECX,DWORD PTR SS:[EBP+08H]  ; Function parameter 1 (arg_0)
00401F1E  7C5C  JL 00401F7C  
00401F20  81F9 B40200C0  CMP ECX, 0C00002B4H  ; Compare with zero (null check)
00401F26  7408  JZ 00401F30  
00401F28  81F9 B50200C0  CMP ECX, 0C00002B5H  ; Compare with zero (null check)
00401F2E  754C  JNZ 00401F7C  
00401F30  0FAE5DFC  STMXCSR DWORD PTR SS:[EBP-04H]  ; Local variable at [ebp-04H]
00401F34  8B45FC  MOV EAX,DWORD PTR SS:[EBP-04H]  ; Local variable at [ebp-04H]
00401F37  83F03F  XOR EAX, 3FH  
00401F3A  A881  TEST AL, 81H  
00401F3C  7442  JZ 00401F80  
00401F3E  A9 04020000  TEST EAX, 00000204H  
00401F43  7507  JNZ 00401F4C  
00401F45  B8 8E0000C0  MOV EAX, C000008EH  
00401F4A  C9  LEAVE  ;Releases the local variables ; Function epilogue - restore stack frame
00401F4B  C3  RET  ;Pop IP ; Return from function
00401F4C  A9 02010000  TEST EAX, 00000102H  
00401F51  742D  JZ 00401F80  
00401F53  A9 08040000  TEST EAX, 00000408H  
00401F58  7507  JNZ 00401F61  
00401F5A  B8 910000C0  MOV EAX, C0000091H  
00401F5F  C9  LEAVE  ;Releases the local variables ; Function epilogue - restore stack frame
00401F60  C3  RET  ;Pop IP ; Return from function
00401F61  A9 10080000  TEST EAX, 00000810H  
00401F66  7507  JNZ 00401F6F  
00401F68  B8 930000C0  MOV EAX, C0000093H  
00401F6D  C9  LEAVE  ;Releases the local variables ; Function epilogue - restore stack frame
00401F6E  C3  RET  ;Pop IP ; Return from function
00401F6F  A9 20100000  TEST EAX, 00001020H  
00401F74  B8 8F0000C0  MOV EAX, C000008FH  
00401F79  0F44C8  CMOVE ECX,EAX  
00401F7C  8BC1  MOV EAX, ECX  
00401F7E  C9  LEAVE  ;Releases the local variables ; Function epilogue - restore stack frame
00401F7F  C3  RET  ;Pop IP ; Return from function
00401F80  B8 900000C0  MOV EAX, C0000090H  
00401F85  C9  LEAVE  ; Proc_00401E6E endp ; Function epilogue - restore stack frame
00401F86  C3  RET  ;Pop IP ; Return from function
00401F87  0000  ADD BYTE PTR DS:[EAX],AL  
00401F89  0000  ADD BYTE PTR DS:[EAX],AL  
00401F8B  0000  ADD BYTE PTR DS:[EAX],AL  
00401F8D  0000  ADD BYTE PTR DS:[EAX],AL  
00401F8F  0000  ADD BYTE PTR DS:[EAX],AL  
00401F91  0000  ADD BYTE PTR DS:[EAX],AL  
00401F93  0000  ADD BYTE PTR DS:[EAX],AL  
00401F95  0000  ADD BYTE PTR DS:[EAX],AL  
00401F97  0000  ADD BYTE PTR DS:[EAX],AL  
00401F99  0000  ADD BYTE PTR DS:[EAX],AL  
00401F9B  0000  ADD BYTE PTR DS:[EAX],AL  
00401F9D  0000  ADD BYTE PTR DS:[EAX],AL  
00401F9F  0000  ADD BYTE PTR DS:[EAX],AL  
00401FA1  0000  ADD BYTE PTR DS:[EAX],AL  
00401FA3  0000  ADD BYTE PTR DS:[EAX],AL  
00401FA5  0000  ADD BYTE PTR DS:[EAX],AL  
00401FA7  0000  ADD BYTE PTR DS:[EAX],AL  
00401FA9  0000  ADD BYTE PTR DS:[EAX],AL  
00401FAB  0000  ADD BYTE PTR DS:[EAX],AL  
00401FAD  0000  ADD BYTE PTR DS:[EAX],AL  
00401FAF  0000  ADD BYTE PTR DS:[EAX],AL  
00401FB1  0000  ADD BYTE PTR DS:[EAX],AL  
00401FB3  0000  ADD BYTE PTR DS:[EAX],AL  
00401FB5  0000  ADD BYTE PTR DS:[EAX],AL  
00401FB7  0000  ADD BYTE PTR DS:[EAX],AL  
00401FB9  0000  ADD BYTE PTR DS:[EAX],AL  
00401FBB  0000  ADD BYTE PTR DS:[EAX],AL  
00401FBD  0000  ADD BYTE PTR DS:[EAX],AL  
00401FBF  0000  ADD BYTE PTR DS:[EAX],AL  
00401FC1  0000  ADD BYTE PTR DS:[EAX],AL  
00401FC3  0000  ADD BYTE PTR DS:[EAX],AL  
00401FC5  0000  ADD BYTE PTR DS:[EAX],AL  
00401FC7  0000  ADD BYTE PTR DS:[EAX],AL  
00401FC9  0000  ADD BYTE PTR DS:[EAX],AL  
00401FCB  0000  ADD BYTE PTR DS:[EAX],AL  
00401FCD  0000  ADD BYTE PTR DS:[EAX],AL  
00401FCF  0000  ADD BYTE PTR DS:[EAX],AL  
00401FD1  0000  ADD BYTE PTR DS:[EAX],AL  
00401FD3  0000  ADD BYTE PTR DS:[EAX],AL  
00401FD5  0000  ADD BYTE PTR DS:[EAX],AL  
00401FD7  0000  ADD BYTE PTR DS:[EAX],AL  
00401FD9  0000  ADD BYTE PTR DS:[EAX],AL  
00401FDB  0000  ADD BYTE PTR DS:[EAX],AL  
00401FDD  0000  ADD BYTE PTR DS:[EAX],AL  
00401FDF  0000  ADD BYTE PTR DS:[EAX],AL  
00401FE1  0000  ADD BYTE PTR DS:[EAX],AL  
00401FE3  0000  ADD BYTE PTR DS:[EAX],AL  
00401FE5  0000  ADD BYTE PTR DS:[EAX],AL  
00401FE7  0000  ADD BYTE PTR DS:[EAX],AL  
00401FE9  0000  ADD BYTE PTR DS:[EAX],AL  
00401FEB  0000  ADD BYTE PTR DS:[EAX],AL  
00401FED  0000  ADD BYTE PTR DS:[EAX],AL  
00401FEF  0000  ADD BYTE PTR DS:[EAX],AL  
00401FF1  0000  ADD BYTE PTR DS:[EAX],AL  
00401FF3  0000  ADD BYTE PTR DS:[EAX],AL  
00401FF5  0000  ADD BYTE PTR DS:[EAX],AL  
00401FF7  0000  ADD BYTE PTR DS:[EAX],AL  
00401FF9  0000  ADD BYTE PTR DS:[EAX],AL  
00401FFB  0000  ADD BYTE PTR DS:[EAX],AL  
