0000000140001000  48:83EC78  SUB RSP, 78H  ; Allocate stack space for local variables ( 78H bytes)
0000000140001004  48:B8 2222222211111111  MOV RAX, 1111111122222222H  
000000014000100E  48:89442408  MOV QWORD PTR SS:[RSP+08H],RAX  
0000000140001013  48:B8 4444444433333333  MOV RAX, 3333333344444444H  
000000014000101D  48:89442428  MOV QWORD PTR SS:[RSP+28H],RAX  
0000000140001022  C70424 2A000000  MOV DWORD PTR SS:[RSP],0000002AH  
0000000140001029  48:B8 0200000001000000  MOV RAX, 0000000100000002H  
0000000140001033  48:89442420  MOV QWORD PTR SS:[RSP+20H],RAX  
0000000140001038  48:8B442408  MOV RAX,QWORD PTR SS:[RSP+08H]  
000000014000103D  48:89442420  MOV QWORD PTR SS:[RSP+20H],RAX  
0000000140001042  48:8B442428  MOV RAX,QWORD PTR SS:[RSP+28H]  
0000000140001047  48:89442408  MOV QWORD PTR SS:[RSP+08H],RAX  
000000014000104C  48:B8 8888888888888888  MOV RAX, 8888888888888888H  
0000000140001056  48:89442410  MOV QWORD PTR SS:[RSP+10H],RAX  
000000014000105B  48:B8 9999999999999999  MOV RAX, 9999999999999999H  
0000000140001065  48:89442430  MOV QWORD PTR SS:[RSP+30H],RAX  
000000014000106A  48:B8 AAAAAAAAAAAAAAAA  MOV RAX, AAAAAAAAAAAAAAAAH  
0000000140001074  48:89442418  MOV QWORD PTR SS:[RSP+18H],RAX  
0000000140001079  48:B8 BBBBBBBBBBBBBBBB  MOV RAX, BBBBBBBBBBBBBBBBH  
0000000140001083  48:89442438  MOV QWORD PTR SS:[RSP+38H],RAX  
0000000140001088  48:8B442430  MOV RAX,QWORD PTR SS:[RSP+30H]  
000000014000108D  48:89442410  MOV QWORD PTR SS:[RSP+10H],RAX  
0000000140001092  48:8B442438  MOV RAX,QWORD PTR SS:[RSP+38H]  
0000000140001097  48:89442418  MOV QWORD PTR SS:[RSP+18H],RAX  
000000014000109C  8B0424  MOV EAX,DWORD PTR SS:[RSP]  
000000014000109F  48:98  CDQE  
00000001400010A1  48:89442440  MOV QWORD PTR SS:[RSP+40H],RAX  
00000001400010A6  48:8B442440  MOV RAX,QWORD PTR SS:[RSP+40H]  
00000001400010AB  48:89442448  MOV QWORD PTR SS:[RSP+48H],RAX  
00000001400010B0  48:8B442410  MOV RAX,QWORD PTR SS:[RSP+10H]  
00000001400010B5  48:89442450  MOV QWORD PTR SS:[RSP+50H],RAX  
00000001400010BA  48:8B442418  MOV RAX,QWORD PTR SS:[RSP+18H]  
00000001400010BF  48:89442458  MOV QWORD PTR SS:[RSP+58H],RAX  
00000001400010C4  48:8B442420  MOV RAX,QWORD PTR SS:[RSP+20H]  
00000001400010C9  48:89442460  MOV QWORD PTR SS:[RSP+60H],RAX  
00000001400010CE  48:83C478  ADD RSP, 78H  
00000001400010D2  C3  RET  ;Pop IP ; Return from function
00000001400010D3  CC  INT3  
00000001400010D4  CC  INT3  
00000001400010D5  CC  INT3  
00000001400010D6  CC  INT3  
00000001400010D7  CC  INT3  
00000001400010D8  CC  INT3  
00000001400010D9  CC  INT3  
00000001400010DA  CC  INT3  
00000001400010DB  CC  INT3  
00000001400010DC  CC  INT3  
00000001400010DD  CC  INT3  
00000001400010DE  CC  INT3  
00000001400010DF  CC  INT3  
00000001400010E0  48:83EC28  SUB RSP, 28H  ; Allocate stack space for local variables ( 28H bytes)
00000001400010E4  48:8B05152F0000  MOV RAX,QWORD PTR [RIP+00002F15H]  
00000001400010EB  48:89442408  MOV QWORD PTR SS:[RSP+08H],RAX  
00000001400010F0  48:B8 1032547698BADCFE  MOV RAX, FEDCBA9876543210H  
00000001400010FA  48:8905FF2E0000  MOV QWORD PTR [RIP+00002EFFH],RAX  
0000000140001101  8B05012F0000  MOV EAX,DWORD PTR [RIP+00002F01H]  
0000000140001107  890424  MOV DWORD PTR SS:[RSP],EAX  
000000014000110A  8B0424  MOV EAX,DWORD PTR SS:[RSP]  
000000014000110D  FFC0  INC EAX  
000000014000110F  8905F32E0000  MOV DWORD PTR [RIP+00002EF3H],EAX  
0000000140001115  48:8B442408  MOV RAX,QWORD PTR SS:[RSP+08H]  
000000014000111A  48:89442410  MOV QWORD PTR SS:[RSP+10H],RAX  
000000014000111F  48:83C428  ADD RSP, 28H  
0000000140001123  C3  RET  ;Pop IP ; Return from function
0000000140001124  CC  INT3  
0000000140001125  CC  INT3  
0000000140001126  CC  INT3  
0000000140001127  CC  INT3  
0000000140001128  CC  INT3  
0000000140001129  CC  INT3  
000000014000112A  CC  INT3  
000000014000112B  CC  INT3  
000000014000112C  CC  INT3  
000000014000112D  CC  INT3  
000000014000112E  CC  INT3  
000000014000112F  CC  INT3  
0000000140001130  48:83EC28  SUB RSP, 28H  ; Allocate stack space for local variables ( 28H bytes)
0000000140001134  48:C70424 01000000  MOV QWORD PTR SS:[RSP],00000001H  
000000014000113C  48:C7442408 02000000  MOV QWORD PTR SS:[RSP+08H],00000002H  
0000000140001145  48:8B0424  MOV RAX,QWORD PTR SS:[RSP]  
0000000140001149  48:8B4C2408  MOV RCX,QWORD PTR SS:[RSP+08H]  
000000014000114E  48:03C1  ADD RAX, RCX  
0000000140001151  48:89442410  MOV QWORD PTR SS:[RSP+10H],RAX  
0000000140001156  48:8B442410  MOV RAX,QWORD PTR SS:[RSP+10H]  
000000014000115B  48:89442418  MOV QWORD PTR SS:[RSP+18H],RAX  
0000000140001160  48:83C428  ADD RSP, 28H  
0000000140001164  C3  RET  ;Pop IP ; Return from function
0000000140001165  CC  INT3  
0000000140001166  CC  INT3  
0000000140001167  CC  INT3  
0000000140001168  CC  INT3  
0000000140001169  CC  INT3  
000000014000116A  CC  INT3  
000000014000116B  CC  INT3  
000000014000116C  CC  INT3  
000000014000116D  CC  INT3  
000000014000116E  CC  INT3  
000000014000116F  CC  INT3  
0000000140001170  48:89542410  MOV QWORD PTR SS:[RSP+10H],RDX  
0000000140001175  48:894C2408  MOV QWORD PTR SS:[RSP+08H],RCX  
000000014000117A  48:83EC28  SUB RSP, 28H  ; Allocate stack space for local variables ( 28H bytes)
000000014000117E  48:837C243800  CMP QWORD PTR SS:[RSP+38H],00H  ; Compare with zero (null check)
0000000140001184  7504  JNZ 000000014000118A  
0000000140001186  33C0  XOR EAX, EAX  ; Zero EAX (return 0 or clear register)
0000000140001188  EB31  JMP 00000001400011BB  
000000014000118A  48:8B442430  MOV RAX,QWORD PTR SS:[RSP+30H]  
000000014000118F  48:99  CQO  
0000000140001191  48:F77C2438  IDIV QWORD PTR SS:[RSP+38H]  
0000000140001196  48:89442410  MOV QWORD PTR SS:[RSP+10H],RAX  
000000014000119B  C70424 FFFFFFFF  MOV DWORD PTR SS:[RSP],FFFFFFFFH  
00000001400011A2  8B0424  MOV EAX,DWORD PTR SS:[RSP]  
00000001400011A5  48:98  CDQE  
00000001400011A7  48:89442408  MOV QWORD PTR SS:[RSP+08H],RAX  
00000001400011AC  48:8B442408  MOV RAX,QWORD PTR SS:[RSP+08H]  
00000001400011B1  48:89442418  MOV QWORD PTR SS:[RSP+18H],RAX  
00000001400011B6  48:8B442410  MOV RAX,QWORD PTR SS:[RSP+10H]  
00000001400011BB  48:83C428  ADD RSP, 28H  
00000001400011BF  C3  RET  ;Pop IP ; Return from function
00000001400011C0  CC  INT3  
00000001400011C1  CC  INT3  
00000001400011C2  CC  INT3  
00000001400011C3  CC  INT3  
00000001400011C4  CC  INT3  
00000001400011C5  CC  INT3  
00000001400011C6  CC  INT3  
00000001400011C7  CC  INT3  
00000001400011C8  CC  INT3  
00000001400011C9  CC  INT3  
00000001400011CA  CC  INT3  
00000001400011CB  CC  INT3  
00000001400011CC  CC  INT3  
00000001400011CD  CC  INT3  
00000001400011CE  CC  INT3  
00000001400011CF  CC  INT3  
00000001400011D0  894C2408  MOV DWORD PTR SS:[RSP+08H],ECX  
00000001400011D4  48:83EC18  SUB RSP, 18H  ; Allocate stack space for local variables ( 18H bytes)
00000001400011D8  C7442404 00000000  MOV DWORD PTR SS:[RSP+04H],00000000H  
00000001400011E0  C70424 00000000  MOV DWORD PTR SS:[RSP],00000000H  
00000001400011E7  EB08  JMP 00000001400011F1  
00000001400011E9  8B0424  MOV EAX,DWORD PTR SS:[RSP]  
00000001400011EC  FFC0  INC EAX  
00000001400011EE  890424  MOV DWORD PTR SS:[RSP],EAX  
00000001400011F1  8B442420  MOV EAX,DWORD PTR SS:[RSP+20H]  
00000001400011F5  390424  CMP DWORD PTR SS:[RSP],EAX  
00000001400011F8  7D2C  JGE 0000000140001226  
00000001400011FA  8B0424  MOV EAX,DWORD PTR SS:[RSP]  
00000001400011FD  83E001  AND EAX, 01H  
0000000140001200  85C0  TEST EAX, EAX  ; Check if EAX is zero
0000000140001202  7411  JZ 0000000140001215  
0000000140001204  8B0424  MOV EAX,DWORD PTR SS:[RSP]  
0000000140001207  8B4C2404  MOV ECX,DWORD PTR SS:[RSP+04H]  
000000014000120B  03C8  ADD ECX, EAX  
000000014000120D  8BC1  MOV EAX, ECX  
000000014000120F  89442404  MOV DWORD PTR SS:[RSP+04H],EAX  
0000000140001213  EB0F  JMP 0000000140001224  
0000000140001215  8B0424  MOV EAX,DWORD PTR SS:[RSP]  
0000000140001218  8B4C2404  MOV ECX,DWORD PTR SS:[RSP+04H]  
000000014000121C  2BC8  SUB ECX, EAX  
000000014000121E  8BC1  MOV EAX, ECX  
0000000140001220  89442404  MOV DWORD PTR SS:[RSP+04H],EAX  
0000000140001224  EBC3  JMP 00000001400011E9  
0000000140001226  8B442404  MOV EAX,DWORD PTR SS:[RSP+04H]  
000000014000122A  48:83C418  ADD RSP, 18H  
000000014000122E  C3  RET  ;Pop IP ; Return from function
000000014000122F  CC  INT3  
0000000140001230  CC  INT3  
0000000140001231  CC  INT3  
0000000140001232  CC  INT3  
0000000140001233  CC  INT3  
0000000140001234  CC  INT3  
0000000140001235  CC  INT3  
0000000140001236  CC  INT3  
0000000140001237  CC  INT3  
0000000140001238  CC  INT3  
0000000140001239  CC  INT3  
000000014000123A  CC  INT3  
000000014000123B  CC  INT3  
000000014000123C  CC  INT3  
000000014000123D  CC  INT3  
000000014000123E  CC  INT3  
000000014000123F  CC  INT3  
0000000140001240  40:57  PUSH RDI  
0000000140001242  48:83EC50  SUB RSP, 50H  ; Allocate stack space for local variables ( 50H bytes)
0000000140001246  48:C7442408 01000000  MOV QWORD PTR SS:[RSP+08H],00000001H  
000000014000124F  48:C7442410 02000000  MOV QWORD PTR SS:[RSP+10H],00000002H  
0000000140001258  48:C7442418 03000000  MOV QWORD PTR SS:[RSP+18H],00000003H  
0000000140001261  48:C7442420 04000000  MOV QWORD PTR SS:[RSP+20H],00000004H  
000000014000126A  48:8D442428  LEA RAX,QWORD PTR SS:[RSP+28H]  
000000014000126F  48:8BF8  MOV RDI, RAX  
0000000140001272  33C0  XOR EAX, EAX  ; Zero EAX (return 0 or clear register)
0000000140001274  B9 20000000  MOV ECX, 00000020H  
0000000140001279  F3:AA  REP STOS  ;Byte ptr ES:[rdi]
000000014000127B  C70424 00000000  MOV DWORD PTR SS:[RSP],00000000H  
0000000140001282  EB08  JMP 000000014000128C  
0000000140001284  8B0424  MOV EAX,DWORD PTR SS:[RSP]  
0000000140001287  FFC0  INC EAX  
0000000140001289  890424  MOV DWORD PTR SS:[RSP],EAX  
000000014000128C  833C2404  CMP DWORD PTR SS:[RSP],04H  ; Compare with zero (null check)
0000000140001290  7D14  JGE 00000001400012A6  
0000000140001292  48:630424  MOVSXD RAX,DWORD PTR SS:[RSP]  
0000000140001296  48:630C24  MOVSXD RCX,DWORD PTR SS:[RSP]  
000000014000129A  48:8B44C408  MOV RAX,QWORD PTR DS:[RAX*8+RSP+08H]  
000000014000129F  48:8944CC28  MOV QWORD PTR DS:[RCX*8+RSP+28H],RAX  
00000001400012A4  EBDE  JMP 0000000140001284  
00000001400012A6  C70424 00000000  MOV DWORD PTR SS:[RSP],00000000H  
00000001400012AD  EB08  JMP 00000001400012B7  
00000001400012AF  8B0424  MOV EAX,DWORD PTR SS:[RSP]  
00000001400012B2  FFC0  INC EAX  
00000001400012B4  890424  MOV DWORD PTR SS:[RSP],EAX  
00000001400012B7  833C2404  CMP DWORD PTR SS:[RSP],04H  ; Compare with zero (null check)
00000001400012BB  7D0F  JGE 00000001400012CC  
00000001400012BD  48:630424  MOVSXD RAX,DWORD PTR SS:[RSP]  
00000001400012C1  48:C744C428 00000000  MOV QWORD PTR DS:[RAX*8+RSP+28H],00000000H  
00000001400012CA  EBE3  JMP 00000001400012AF  
00000001400012CC  48:83C450  ADD RSP, 50H  
00000001400012D0  5F  POP RDI  
00000001400012D1  C3  RET  ;Pop IP ; Return from function
00000001400012D2  CC  INT3  
00000001400012D3  CC  INT3  
00000001400012D4  CC  INT3  
00000001400012D5  CC  INT3  
00000001400012D6  CC  INT3  
00000001400012D7  CC  INT3  
00000001400012D8  CC  INT3  
00000001400012D9  CC  INT3  
00000001400012DA  CC  INT3  
00000001400012DB  CC  INT3  
00000001400012DC  CC  INT3  
00000001400012DD  CC  INT3  
00000001400012DE  CC  INT3  
00000001400012DF  CC  INT3  
00000001400012E0  48:83EC28  SUB RSP, 28H  ; Allocate stack space for local variables ( 28H bytes)
00000001400012E4  C7442404 0A000000  MOV DWORD PTR SS:[RSP+04H],0000000AH  
00000001400012EC  C7442408 14000000  MOV DWORD PTR SS:[RSP+08H],00000014H  
00000001400012F4  8B442404  MOV EAX,DWORD PTR SS:[RSP+04H]  
00000001400012F8  8B4C2408  MOV ECX,DWORD PTR SS:[RSP+08H]  
00000001400012FC  3BC1  CMP EAX, ECX  
00000001400012FE  7E09  JLE 0000000140001309  
0000000140001300  C70424 01000000  MOV DWORD PTR SS:[RSP],00000001H  
0000000140001307  EB07  JMP 0000000140001310  
0000000140001309  C70424 00000000  MOV DWORD PTR SS:[RSP],00000000H  
0000000140001310  8B0424  MOV EAX,DWORD PTR SS:[RSP]  
0000000140001313  8944240C  MOV DWORD PTR SS:[RSP+0CH],EAX  
0000000140001317  8B44240C  MOV EAX,DWORD PTR SS:[RSP+0CH]  
000000014000131B  89442410  MOV DWORD PTR SS:[RSP+10H],EAX  
000000014000131F  48:83C428  ADD RSP, 28H  
0000000140001323  C3  RET  ;Pop IP ; Return from function
0000000140001324  CC  INT3  
0000000140001325  CC  INT3  
0000000140001326  CC  INT3  
0000000140001327  CC  INT3  
0000000140001328  CC  INT3  
0000000140001329  CC  INT3  
000000014000132A  CC  INT3  
000000014000132B  CC  INT3  
000000014000132C  CC  INT3  
000000014000132D  CC  INT3  
000000014000132E  CC  INT3  
000000014000132F  CC  INT3  
0000000140001330  48:894C2408  MOV QWORD PTR SS:[RSP+08H],RCX  
0000000140001335  48:83EC18  SUB RSP, 18H  ; Allocate stack space for local variables ( 18H bytes)
0000000140001339  C6042400  MOV BYTE PTR SS:[RSP],00H  
000000014000133D  48:837C242000  CMP QWORD PTR SS:[RSP+20H],00H  ; Compare with zero (null check)
0000000140001343  742B  JZ 0000000140001370  
0000000140001345  B8 01000000  MOV EAX, 00000001H  
000000014000134A  48:6BC000  IMUL RAX,RAX,00H  
000000014000134E  48:8B4C2420  MOV RCX,QWORD PTR SS:[RSP+20H]  
0000000140001353  0FBE0401  MOVSX EAX,BYTE PTR DS:[RAX+RCX]  
0000000140001357  85C0  TEST EAX, EAX  ; Check if EAX is zero
0000000140001359  7415  JZ 0000000140001370  
000000014000135B  B8 01000000  MOV EAX, 00000001H  
0000000140001360  48:6BC000  IMUL RAX,RAX,00H  
0000000140001364  48:8B4C2420  MOV RCX,QWORD PTR SS:[RSP+20H]  
0000000140001369  0FB60401  MOVZX EAX,BYTE PTR DS:[RAX+RCX]  
000000014000136D  880424  MOV BYTE PTR SS:[RSP],AL  
0000000140001370  0FB60424  MOVZX EAX,BYTE PTR SS:[RSP]  
0000000140001374  0FBEC0  MOVSX EAX,AL  
0000000140001377  48:83C418  ADD RSP, 18H  
000000014000137B  C3  RET  ;Pop IP ; Return from function
000000014000137C  CC  INT3  
000000014000137D  CC  INT3  
000000014000137E  CC  INT3  
000000014000137F  CC  INT3  
0000000140001380  CC  INT3  
0000000140001381  CC  INT3  
0000000140001382  CC  INT3  
0000000140001383  CC  INT3  
0000000140001384  CC  INT3  
0000000140001385  CC  INT3  
0000000140001386  CC  INT3  
0000000140001387  CC  INT3  
0000000140001388  CC  INT3  
0000000140001389  CC  INT3  
000000014000138A  CC  INT3  
000000014000138B  CC  INT3  
000000014000138C  CC  INT3  
000000014000138D  CC  INT3  
000000014000138E  CC  INT3  
000000014000138F  CC  INT3  
0000000140001390  48:83EC38  SUB RSP, 38H  ; Allocate stack space for local variables ( 38H bytes)
0000000140001394  48:8D0D752C0000  LEA RCX,QWORD PTR [RIP+00002C75H]  
000000014000139B  E8 50010000  CALL 00000001400014F0  
00000001400013A0  48:8D0D892C0000  LEA RCX,QWORD PTR [RIP+00002C89H]  
00000001400013A7  E8 44010000  CALL 00000001400014F0  
00000001400013AC  E8 4FFCFFFF  CALL 0000000140001000  
00000001400013B1  48:8D0D982C0000  LEA RCX,QWORD PTR [RIP+00002C98H]  
00000001400013B8  E8 33010000  CALL 00000001400014F0  
00000001400013BD  E8 1EFDFFFF  CALL 00000001400010E0  
00000001400013C2  48:8D0DAF2C0000  LEA RCX,QWORD PTR [RIP+00002CAFH]  
00000001400013C9  E8 22010000  CALL 00000001400014F0  
00000001400013CE  E8 5DFDFFFF  CALL 0000000140001130  
00000001400013D3  48:8D0DBE2C0000  LEA RCX,QWORD PTR [RIP+00002CBEH]  
00000001400013DA  E8 11010000  CALL 00000001400014F0  
00000001400013DF  BA 07000000  MOV EDX, 00000007H  
00000001400013E4  B9 64000000  MOV ECX, 00000064H  
00000001400013E9  E8 82FDFFFF  CALL 0000000140001170  
00000001400013EE  48:89442428  MOV QWORD PTR SS:[RSP+28H],RAX  
00000001400013F3  48:8B542428  MOV RDX,QWORD PTR SS:[RSP+28H]  
00000001400013F8  48:8D0DB92C0000  LEA RCX,QWORD PTR [RIP+00002CB9H]  
00000001400013FF  E8 EC000000  CALL 00000001400014F0  
0000000140001404  B9 0A000000  MOV ECX, 0000000AH  
0000000140001409  E8 C2FDFFFF  CALL 00000001400011D0  
000000014000140E  89442420  MOV DWORD PTR SS:[RSP+20H],EAX  
0000000140001412  8B542420  MOV EDX,DWORD PTR SS:[RSP+20H]  
0000000140001416  48:8D0DBB2C0000  LEA RCX,QWORD PTR [RIP+00002CBBH]  
000000014000141D  E8 CE000000  CALL 00000001400014F0  
0000000140001422  E8 19FEFFFF  CALL 0000000140001240  
0000000140001427  48:8D0DCA2C0000  LEA RCX,QWORD PTR [RIP+00002CCAH]  
000000014000142E  E8 BD000000  CALL 00000001400014F0  
0000000140001433  E8 A8FEFFFF  CALL 00000001400012E0  
0000000140001438  48:8D0DD92C0000  LEA RCX,QWORD PTR [RIP+00002CD9H]  
000000014000143F  E8 AC000000  CALL 00000001400014F0  
0000000140001444  48:8D0DC12B0000  LEA RCX,QWORD PTR [RIP+00002BC1H]  
000000014000144B  E8 E0FEFFFF  CALL 0000000140001330  
0000000140001450  89442424  MOV DWORD PTR SS:[RSP+24H],EAX  
0000000140001454  8B542424  MOV EDX,DWORD PTR SS:[RSP+24H]  
0000000140001458  48:8D0DD12C0000  LEA RCX,QWORD PTR [RIP+00002CD1H]  
000000014000145F  E8 8C000000  CALL 00000001400014F0  
0000000140001464  41:B8 0F010000  MOV R8D, 0000010FH  
000000014000146A  48:8D158F4B0000  LEA RDX,QWORD PTR [RIP+00004B8FH]  
0000000140001471  48:8D0DE02C0000  LEA RCX,QWORD PTR [RIP+00002CE0H]  
0000000140001478  E8 73000000  CALL 00000001400014F0  
000000014000147D  48:8D0D0C2D0000  LEA RCX,QWORD PTR [RIP+00002D0CH]  
0000000140001484  E8 67000000  CALL 00000001400014F0  
0000000140001489  33C0  XOR EAX, EAX  ; Zero EAX (return 0 or clear register)
000000014000148B  48:83C438  ADD RSP, 38H  
000000014000148F  C3  RET  ;Pop IP ; Return from function
0000000140001490  48:8D05412E0000  LEA RAX,QWORD PTR [RIP+00002E41H]  
0000000140001497  C3  RET  ;Pop IP ; Return from function
0000000140001498  CC  INT3  
0000000140001499  CC  INT3  
000000014000149A  CC  INT3  
000000014000149B  CC  INT3  
000000014000149C  CC  INT3  
000000014000149D  CC  INT3  
000000014000149E  CC  INT3  
000000014000149F  CC  INT3  
00000001400014A0  4C:894C2420  MOV QWORD PTR SS:[RSP+20H],R9  
00000001400014A5  4C:89442418  MOV QWORD PTR SS:[RSP+18H],R8  
00000001400014AA  48:89542410  MOV QWORD PTR SS:[RSP+10H],RDX  
00000001400014AF  48:894C2408  MOV QWORD PTR SS:[RSP+08H],RCX  
00000001400014B4  48:83EC38  SUB RSP, 38H  ; Allocate stack space for local variables ( 38H bytes)
00000001400014B8  E8 D3FFFFFF  CALL 0000000140001490  
00000001400014BD  48:8B4C2458  MOV RCX,QWORD PTR SS:[RSP+58H]  
00000001400014C2  48:894C2420  MOV QWORD PTR SS:[RSP+20H],RCX  
00000001400014C7  4C:8B4C2450  MOV R9,QWORD PTR SS:[RSP+50H]  
00000001400014CC  4C:8B442448  MOV R8,QWORD PTR SS:[RSP+48H]  
00000001400014D1  48:8B542440  MOV RDX,QWORD PTR SS:[RSP+40H]  
00000001400014D6  48:8B08  MOV RCX,QWORD PTR DS:[RAX]  
00000001400014D9  FF15991C0000  CALL QWORD PTR [RIP+00001C99H]  
00000001400014DF  48:83C438  ADD RSP, 38H  
00000001400014E3  C3  RET  ;Pop IP ; Return from function
00000001400014E4  CC  INT3  
00000001400014E5  CC  INT3  
00000001400014E6  CC  INT3  
00000001400014E7  CC  INT3  
00000001400014E8  CC  INT3  
00000001400014E9  CC  INT3  
00000001400014EA  CC  INT3  
00000001400014EB  CC  INT3  
00000001400014EC  CC  INT3  
00000001400014ED  CC  INT3  
00000001400014EE  CC  INT3  
00000001400014EF  CC  INT3  
00000001400014F0  48:894C2408  MOV QWORD PTR SS:[RSP+08H],RCX  
00000001400014F5  48:89542410  MOV QWORD PTR SS:[RSP+10H],RDX  
00000001400014FA  4C:89442418  MOV QWORD PTR SS:[RSP+18H],R8  
00000001400014FF  4C:894C2420  MOV QWORD PTR SS:[RSP+20H],R9  
0000000140001504  48:83EC38  SUB RSP, 38H  ; Allocate stack space for local variables ( 38H bytes)
0000000140001508  48:8D442448  LEA RAX,QWORD PTR SS:[RSP+48H]  
000000014000150D  48:89442428  MOV QWORD PTR SS:[RSP+28H],RAX  
0000000140001512  B9 01000000  MOV ECX, 00000001H  
0000000140001517  FF15631C0000  CALL QWORD PTR [RIP+00001C63H]  
000000014000151D  4C:8B4C2428  MOV R9,QWORD PTR SS:[RSP+28H]  
0000000140001522  45:33C0  XOR R8D, R8D  
0000000140001525  48:8B542440  MOV RDX,QWORD PTR SS:[RSP+40H]  
000000014000152A  48:8BC8  MOV RCX, RAX  
000000014000152D  E8 6EFFFFFF  CALL 00000001400014A0  
0000000140001532  89442420  MOV DWORD PTR SS:[RSP+20H],EAX  
0000000140001536  48:C7442428 00000000  MOV QWORD PTR SS:[RSP+28H],00000000H  
000000014000153F  8B442420  MOV EAX,DWORD PTR SS:[RSP+20H]  
0000000140001543  48:83C438  ADD RSP, 38H  
0000000140001547  C3  RET  ;Pop IP ; Return from function
0000000140001548  40:53  PUSH RBX  
000000014000154A  48:83EC20  SUB RSP, 20H  ; Allocate stack space for local variables ( 20H bytes)
000000014000154E  B9 01000000  MOV ECX, 00000001H  
0000000140001553  E8 260B0000  CALL 000000014000207E  
0000000140001558  E8 5B050000  CALL 0000000140001AB8  
000000014000155D  8BC8  MOV ECX, EAX  
000000014000155F  E8 500B0000  CALL 00000001400020B4  
0000000140001564  E8 43050000  CALL 0000000140001AAC  
0000000140001569  8BD8  MOV EBX, EAX  
000000014000156B  E8 740B0000  CALL 00000001400020E4  
0000000140001570  B9 01000000  MOV ECX, 00000001H  
0000000140001575  8918  MOV DWORD PTR DS:[RAX],EBX  
0000000140001577  E8 B8020000  CALL 0000000140001834  
000000014000157C  84C0  TEST AL, AL  
000000014000157E  7473  JZ 00000001400015F3  
0000000140001580  E8 BB070000  CALL 0000000140001D40  
0000000140001585  48:8D0DF0070000  LEA RCX,QWORD PTR [RIP+000007F0H]  
000000014000158C  E8 53040000  CALL 00000001400019E4  
0000000140001591  E8 1A050000  CALL 0000000140001AB0  
0000000140001596  8BC8  MOV ECX, EAX  
0000000140001598  E8 ED0A0000  CALL 000000014000208A  
000000014000159D  85C0  TEST EAX, EAX  ; Check if EAX is zero
000000014000159F  7552  JNZ 00000001400015F3  
00000001400015A1  E8 1A050000  CALL 0000000140001AC0  
00000001400015A6  E8 51050000  CALL 0000000140001AFC  
00000001400015AB  85C0  TEST EAX, EAX  ; Check if EAX is zero
00000001400015AD  740C  JZ 00000001400015BB  
00000001400015AF  48:8D0DF6040000  LEA RCX,QWORD PTR [RIP+000004F6H]  
00000001400015B6  E8 C90A0000  CALL 0000000140002084  
00000001400015BB  E8 14050000  CALL 0000000140001AD4  
00000001400015C0  E8 0F050000  CALL 0000000140001AD4  
00000001400015C5  E8 E2040000  CALL 0000000140001AAC  
00000001400015CA  8BC8  MOV ECX, EAX  
00000001400015CC  E8 070B0000  CALL 00000001400020D8  
00000001400015D1  E8 FA040000  CALL 0000000140001AD0  
00000001400015D6  84C0  TEST AL, AL  
00000001400015D8  7405  JZ 00000001400015DF  
00000001400015DA  E8 B10A0000  CALL 0000000140002090  
00000001400015DF  E8 C8040000  CALL 0000000140001AAC  
00000001400015E4  E8 87060000  CALL 0000000140001C70  
00000001400015E9  85C0  TEST EAX, EAX  ; Check if EAX is zero
00000001400015EB  7506  JNZ 00000001400015F3  
00000001400015ED  48:83C420  ADD RSP, 20H  
00000001400015F1  5B  POP RBX  
00000001400015F2  C3  RET  ;Pop IP ; Return from function
00000001400015F3  B9 07000000  MOV ECX, 00000007H  
00000001400015F8  E8 27050000  CALL 0000000140001B24  
00000001400015FD  CC  INT3  
00000001400015FE  CC  INT3  
00000001400015FF  CC  INT3  
0000000140001600  48:83EC28  SUB RSP, 28H  ; Allocate stack space for local variables ( 28H bytes)
0000000140001604  E8 D7040000  CALL 0000000140001AE0  
0000000140001609  33C0  XOR EAX, EAX  ; Zero EAX (return 0 or clear register)
000000014000160B  48:83C428  ADD RSP, 28H  
000000014000160F  C3  RET  ;Pop IP ; Return from function
0000000140001610  48:83EC28  SUB RSP, 28H  ; Allocate stack space for local variables ( 28H bytes)
0000000140001614  E8 B3060000  CALL 0000000140001CCC  
0000000140001619  E8 8E040000  CALL 0000000140001AAC  
000000014000161E  8BC8  MOV ECX, EAX  
0000000140001620  48:83C428  ADD RSP, 28H  
0000000140001624  E9 B50A0000  JMP 00000001400020DE  
0000000140001629  CC  INT3  
000000014000162A  CC  INT3  
000000014000162B  CC  INT3  
000000014000162C  48:895C2408  MOV QWORD PTR SS:[RSP+08H],RBX  
0000000140001631  48:89742410  MOV QWORD PTR SS:[RSP+10H],RSI  
0000000140001636  57  PUSH RDI  
0000000140001637  48:83EC30  SUB RSP, 30H  ; Allocate stack space for local variables ( 30H bytes)
000000014000163B  B9 01000000  MOV ECX, 00000001H  
0000000140001640  E8 B3010000  CALL 00000001400017F8  
0000000140001645  84C0  TEST AL, AL  
0000000140001647  0F84 36010000  JZ 0000000140001783  
000000014000164D  40:32F6  XOR SIL, SIL  
0000000140001650  40:88742420  MOV BYTE PTR SS:[RSP+20H],SIL  
0000000140001655  E8 62010000  CALL 00000001400017BC  
000000014000165A  8AD8  MOV BL, AL  
000000014000165C  8B0DFE2B0000  MOV ECX,DWORD PTR [RIP+00002BFEH]  
0000000140001662  83F901  CMP ECX, 01H  ; Compare with zero (null check)
0000000140001665  0F84 23010000  JZ 000000014000178E  
000000014000166B  85C9  TEST ECX, ECX  
000000014000166D  754A  JNZ 00000001400016B9  
000000014000166F  C705E72B0000 01000000  MOV DWORD PTR [RIP+00002BE7H],00000001H  
0000000140001679  48:8D15781B0000  LEA RDX,QWORD PTR [RIP+00001B78H]  
0000000140001680  48:8D0D591B0000  LEA RCX,QWORD PTR [RIP+00001B59H]  
0000000140001687  E8 160A0000  CALL 00000001400020A2  
000000014000168C  85C0  TEST EAX, EAX  ; Check if EAX is zero
000000014000168E  740A  JZ 000000014000169A  
0000000140001690  B8 FF000000  MOV EAX, 000000FFH  
0000000140001695  E9 D9000000  JMP 0000000140001773  
000000014000169A  48:8D15371B0000  LEA RDX,QWORD PTR [RIP+00001B37H]  
00000001400016A1  48:8D0D201B0000  LEA RCX,QWORD PTR [RIP+00001B20H]  
00000001400016A8  E8 EF090000  CALL 000000014000209C  
00000001400016AD  C705A92B0000 02000000  MOV DWORD PTR [RIP+00002BA9H],00000002H  
00000001400016B7  EB08  JMP 00000001400016C1  
00000001400016B9  40:B601  MOV SIL, 01H  
00000001400016BC  40:88742420  MOV BYTE PTR SS:[RSP+20H],SIL  
00000001400016C1  8ACB  MOV CL, BL  
00000001400016C3  E8 90020000  CALL 0000000140001958  
00000001400016C8  E8 3B040000  CALL 0000000140001B08  
00000001400016CD  48:8BD8  MOV RBX, RAX  
00000001400016D0  48:8338 00  CMP QWORD PTR DS:[RAX],00H  ; Compare with zero (null check)
00000001400016D4  741E  JZ 00000001400016F4  
00000001400016D6  48:8BC8  MOV RCX, RAX  
00000001400016D9  E8 E2010000  CALL 00000001400018C0  
00000001400016DE  84C0  TEST AL, AL  
00000001400016E0  7412  JZ 00000001400016F4  
00000001400016E2  45:33C0  XOR R8D, R8D  
00000001400016E5  41:8D5002  LEA EDX,DWORD PTR DS:[R8+02H]  
00000001400016E9  33C9  XOR ECX, ECX  
00000001400016EB  48:8B03  MOV RAX,QWORD PTR DS:[RBX]  
00000001400016EE  FF15AC1A0000  CALL QWORD PTR [RIP+00001AACH]  
00000001400016F4  E8 17040000  CALL 0000000140001B10  
00000001400016F9  48:8BD8  MOV RBX, RAX  
00000001400016FC  48:8338 00  CMP QWORD PTR DS:[RAX],00H  ; Compare with zero (null check)
0000000140001700  7414  JZ 0000000140001716  
0000000140001702  48:8BC8  MOV RCX, RAX  
0000000140001705  E8 B6010000  CALL 00000001400018C0  
000000014000170A  84C0  TEST AL, AL  
000000014000170C  7408  JZ 0000000140001716  
000000014000170E  48:8B0B  MOV RCX,QWORD PTR DS:[RBX]  
0000000140001711  E8 BC090000  CALL 00000001400020D2  
0000000140001716  E8 7B090000  CALL 0000000140002096  
000000014000171B  48:8BF8  MOV RDI, RAX  
000000014000171E  E8 9D090000  CALL 00000001400020C0  
0000000140001723  48:8B18  MOV RBX,QWORD PTR DS:[RAX]  
0000000140001726  E8 8F090000  CALL 00000001400020BA  
000000014000172B  4C:8BC7  MOV R8, RDI  
000000014000172E  48:8BD3  MOV RDX, RBX  
0000000140001731  8B08  MOV ECX,DWORD PTR DS:[RAX]  
0000000140001733  E8 58FCFFFF  CALL 0000000140001390  
0000000140001738  8BD8  MOV EBX, EAX  
000000014000173A  E8 39050000  CALL 0000000140001C78  
000000014000173F  84C0  TEST AL, AL  
0000000140001741  7455  JZ 0000000140001798  
0000000140001743  40:84F6  TEST SIL, SIL  
0000000140001746  7505  JNZ 000000014000174D  
0000000140001748  E8 79090000  CALL 00000001400020C6  
000000014000174D  33D2  XOR EDX, EDX  
000000014000174F  B101  MOV CL, 01H  
0000000140001751  E8 26020000  CALL 000000014000197C  
0000000140001756  8BC3  MOV EAX, EBX  
0000000140001758  EB19  JMP 0000000140001773  
000000014000175A  8BD8  MOV EBX, EAX  
000000014000175C  E8 17050000  CALL 0000000140001C78  
0000000140001761  84C0  TEST AL, AL  
0000000140001763  743B  JZ 00000001400017A0  
0000000140001765  807C242000  CMP BYTE PTR SS:[RSP+20H],00H  ; Compare with zero (null check)
000000014000176A  7505  JNZ 0000000140001771  
000000014000176C  E8 5B090000  CALL 00000001400020CC  
0000000140001771  8BC3  MOV EAX, EBX  
0000000140001773  48:8B5C2440  MOV RBX,QWORD PTR SS:[RSP+40H]  
0000000140001778  48:8B742448  MOV RSI,QWORD PTR SS:[RSP+48H]  
000000014000177D  48:83C430  ADD RSP, 30H  
0000000140001781  5F  POP RDI  
0000000140001782  C3  RET  ;Pop IP ; Return from function
0000000140001783  B9 07000000  MOV ECX, 00000007H  
0000000140001788  E8 97030000  CALL 0000000140001B24  
000000014000178D  90  NOP  
000000014000178E  B9 07000000  MOV ECX, 00000007H  
0000000140001793  E8 8C030000  CALL 0000000140001B24  
0000000140001798  8BCB  MOV ECX, EBX  
000000014000179A  E8 09090000  CALL 00000001400020A8  
000000014000179F  90  NOP  
00000001400017A0  8BCB  MOV ECX, EBX  
00000001400017A2  E8 07090000  CALL 00000001400020AE  
00000001400017A7  90  NOP  
    ; ===========[ Program Entry Point ]===========  
00000001400017A8  48:83EC28  SUB RSP, 28H  ; Allocate stack space for local variables ( 28H bytes)
00000001400017AC  E8 4B020000  CALL 00000001400019FC  
00000001400017B1  48:83C428  ADD RSP, 28H  
00000001400017B5  E9 72FEFFFF  JMP 000000014000162C  
00000001400017BA  CC  INT3  
00000001400017BB  CC  INT3  
00000001400017BC  48:83EC28  SUB RSP, 28H  ; Allocate stack space for local variables ( 28H bytes)
00000001400017C0  E8 8B080000  CALL 0000000140002050  
00000001400017C5  85C0  TEST EAX, EAX  ; Check if EAX is zero
00000001400017C7  7421  JZ 00000001400017EA  
00000001400017C9  65:48:8B 0425 30000000  MOV RAX,QWORD PTR GS:[00000030H]  
00000001400017D2  48:8B4808  MOV RCX,QWORD PTR DS:[RAX+08H]  
00000001400017D6  EB05  JMP 00000001400017DD  
00000001400017D8  48:3BC8  CMP RCX, RAX  
00000001400017DB  7414  JZ 00000001400017F1  
00000001400017DD  33C0  XOR EAX, EAX  ; Zero EAX (return 0 or clear register)
00000001400017DF  F0:48:0FB10D802A0000  LOCK CMPXCHG QWORD PTR [RIP+00002A80H],RCX  
00000001400017E8  75EE  JNZ 00000001400017D8  
00000001400017EA  32C0  XOR AL, AL  
00000001400017EC  48:83C428  ADD RSP, 28H  
00000001400017F0  C3  RET  ;Pop IP ; Return from function
00000001400017F1  B001  MOV AL, 01H  
00000001400017F3  EBF7  JMP 00000001400017EC  
00000001400017F5  CC  INT3  
00000001400017F6  CC  INT3  
00000001400017F7  CC  INT3  
00000001400017F8  48:83EC28  SUB RSP, 28H  ; Allocate stack space for local variables ( 28H bytes)
00000001400017FC  85C9  TEST ECX, ECX  
00000001400017FE  7507  JNZ 0000000140001807  
0000000140001800  C605692A0000 01  MOV BYTE PTR [RIP+00002A69H],01H  
0000000140001807  E8 AC050000  CALL 0000000140001DB8  
000000014000180C  E8 BF020000  CALL 0000000140001AD0  
0000000140001811  84C0  TEST AL, AL  
0000000140001813  7504  JNZ 0000000140001819  
0000000140001815  32C0  XOR AL, AL  
0000000140001817  EB14  JMP 000000014000182D  
0000000140001819  E8 B2020000  CALL 0000000140001AD0  
000000014000181E  84C0  TEST AL, AL  
0000000140001820  7509  JNZ 000000014000182B  
0000000140001822  33C9  XOR ECX, ECX  
0000000140001824  E8 A7020000  CALL 0000000140001AD0  
0000000140001829  EBEA  JMP 0000000140001815  
000000014000182B  B001  MOV AL, 01H  
000000014000182D  48:83C428  ADD RSP, 28H  
0000000140001831  C3  RET  ;Pop IP ; Return from function
0000000140001832  CC  INT3  
0000000140001833  CC  INT3  
0000000140001834  40:53  PUSH RBX  
0000000140001836  48:83EC20  SUB RSP, 20H  ; Allocate stack space for local variables ( 20H bytes)
000000014000183A  803D302A0000 00  CMP BYTE PTR [RIP+00002A30H],00H  ; Compare with zero (null check)
0000000140001841  8BD9  MOV EBX, ECX  
0000000140001843  7567  JNZ 00000001400018AC  
0000000140001845  83F901  CMP ECX, 01H  ; Compare with zero (null check)
0000000140001848  776A  JA 00000001400018B4  
000000014000184A  E8 01080000  CALL 0000000140002050  
000000014000184F  85C0  TEST EAX, EAX  ; Check if EAX is zero
0000000140001851  7428  JZ 000000014000187B  
0000000140001853  85DB  TEST EBX, EBX  
0000000140001855  7524  JNZ 000000014000187B  
0000000140001857  48:8D0D1A2A0000  LEA RCX,QWORD PTR [RIP+00002A1AH]  
000000014000185E  E8 87080000  CALL 00000001400020EA  
0000000140001863  85C0  TEST EAX, EAX  ; Check if EAX is zero
0000000140001865  7510  JNZ 0000000140001877  
0000000140001867  48:8D0D222A0000  LEA RCX,QWORD PTR [RIP+00002A22H]  
000000014000186E  E8 77080000  CALL 00000001400020EA  
0000000140001873  85C0  TEST EAX, EAX  ; Check if EAX is zero
0000000140001875  742E  JZ 00000001400018A5  
0000000140001877  32C0  XOR AL, AL  
0000000140001879  EB33  JMP 00000001400018AE  
000000014000187B  66:0F6F059D190000  MOVDQA XMM0,DQWORD PTR [RIP+0000199DH]  
0000000140001883  48:83C8FF  OR RAX, -01H  
0000000140001887  F3:0F7F05E9290000  MOVDQU DQWORD PTR [RIP+000029E9H],XMM0  
000000014000188F  48:8905F2290000  MOV QWORD PTR [RIP+000029F2H],RAX  
0000000140001896  F3:0F7F05F2290000  MOVDQU DQWORD PTR [RIP+000029F2H],XMM0  
000000014000189E  48:8905FB290000  MOV QWORD PTR [RIP+000029FBH],RAX  
00000001400018A5  C605C5290000 01  MOV BYTE PTR [RIP+000029C5H],01H  
00000001400018AC  B001  MOV AL, 01H  
00000001400018AE  48:83C420  ADD RSP, 20H  
00000001400018B2  5B  POP RBX  
00000001400018B3  C3  RET  ;Pop IP ; Return from function
00000001400018B4  B9 05000000  MOV ECX, 00000005H  
00000001400018B9  E8 66020000  CALL 0000000140001B24  
00000001400018BE  CC  INT3  
00000001400018BF  CC  INT3  
00000001400018C0  48:83EC18  SUB RSP, 18H  ; Allocate stack space for local variables ( 18H bytes)
00000001400018C4  4C:8BC1  MOV R8, RCX  
00000001400018C7  B8 4D5A0000  MOV EAX, 00005A4DH  
00000001400018CC  66:39052DE7FFFF  CMP WORD PTR [RIP+FFFFE72DH],AX  
00000001400018D3  7578  JNZ 000000014000194D  
00000001400018D5  48:630D60E7FFFF  MOVSXD RCX,DWORD PTR [RIP+FFFFE760H]  
00000001400018DC  48:8D151DE7FFFF  LEA RDX,QWORD PTR [RIP+FFFFE71DH]  
00000001400018E3  48:03CA  ADD RCX, RDX  
00000001400018E6  8139 50450000  CMP DWORD PTR DS:[RCX], 00004550H  ; Compare with zero (null check)
00000001400018EC  755F  JNZ 000000014000194D  
00000001400018EE  B8 0B020000  MOV EAX, 0000020BH  
00000001400018F3  66:394118  CMP WORD PTR DS:[RCX+18H],AX  
00000001400018F7  7554  JNZ 000000014000194D  
00000001400018F9  4C:2BC2  SUB R8, RDX  
00000001400018FC  0FB75114  MOVZX EDX,WORD PTR DS:[RCX+14H]  
0000000140001900  48:83C218  ADD RDX, 18H  
0000000140001904  48:03D1  ADD RDX, RCX  
0000000140001907  0FB74106  MOVZX EAX,WORD PTR DS:[RCX+06H]  
000000014000190B  48:8D0C80  LEA RCX,QWORD PTR DS:[RAX*4+RAX]  
000000014000190F  4C:8D0CCA  LEA R9,QWORD PTR DS:[RCX*8+RDX]  
0000000140001913  48:891424  MOV QWORD PTR SS:[RSP],RDX  
0000000140001917  49:3BD1  CMP RDX, R9  
000000014000191A  7418  JZ 0000000140001934  
000000014000191C  8B4A0C  MOV ECX,DWORD PTR DS:[RDX+0CH]  
000000014000191F  4C:3BC1  CMP R8, RCX  
0000000140001922  720A  JB 000000014000192E  
0000000140001924  8B4208  MOV EAX,DWORD PTR DS:[RDX+08H]  
0000000140001927  03C1  ADD EAX, ECX  
0000000140001929  4C:3BC0  CMP R8, RAX  
000000014000192C  7208  JB 0000000140001936  
000000014000192E  48:83C228  ADD RDX, 28H  
0000000140001932  EBDF  JMP 0000000140001913  
0000000140001934  33D2  XOR EDX, EDX  
0000000140001936  48:85D2  TEST RDX, RDX  
0000000140001939  7504  JNZ 000000014000193F  
000000014000193B  32C0  XOR AL, AL  
000000014000193D  EB14  JMP 0000000140001953  
000000014000193F  837A2400  CMP DWORD PTR DS:[RDX+24H],00H  ; Compare with zero (null check)
0000000140001943  7D04  JGE 0000000140001949  
0000000140001945  32C0  XOR AL, AL  
0000000140001947  EB0A  JMP 0000000140001953  
0000000140001949  B001  MOV AL, 01H  
000000014000194B  EB06  JMP 0000000140001953  
000000014000194D  32C0  XOR AL, AL  
000000014000194F  EB02  JMP 0000000140001953  
0000000140001951  32C0  XOR AL, AL  
0000000140001953  48:83C418  ADD RSP, 18H  
0000000140001957  C3  RET  ;Pop IP ; Return from function
0000000140001958  40:53  PUSH RBX  
000000014000195A  48:83EC20  SUB RSP, 20H  ; Allocate stack space for local variables ( 20H bytes)
000000014000195E  8AD9  MOV BL, CL  
0000000140001960  E8 EB060000  CALL 0000000140002050  
0000000140001965  33D2  XOR EDX, EDX  
0000000140001967  85C0  TEST EAX, EAX  ; Check if EAX is zero
0000000140001969  740B  JZ 0000000140001976  
000000014000196B  84DB  TEST BL, BL  
000000014000196D  7507  JNZ 0000000140001976  
000000014000196F  48:8715F2280000  XCHG QWORD PTR [RIP+000028F2H],RDX  
0000000140001976  48:83C420  ADD RSP, 20H  
000000014000197A  5B  POP RBX  
000000014000197B  C3  RET  ;Pop IP ; Return from function
000000014000197C  40:53  PUSH RBX  
000000014000197E  48:83EC20  SUB RSP, 20H  ; Allocate stack space for local variables ( 20H bytes)
0000000140001982  803DE7280000 00  CMP BYTE PTR [RIP+000028E7H],00H  ; Compare with zero (null check)
0000000140001989  8AD9  MOV BL, CL  
000000014000198B  7404  JZ 0000000140001991  
000000014000198D  84D2  TEST DL, DL  
000000014000198F  750C  JNZ 000000014000199D  
0000000140001991  E8 3A010000  CALL 0000000140001AD0  
0000000140001996  8ACB  MOV CL, BL  
0000000140001998  E8 33010000  CALL 0000000140001AD0  
000000014000199D  B001  MOV AL, 01H  
000000014000199F  48:83C420  ADD RSP, 20H  
00000001400019A3  5B  POP RBX  
00000001400019A4  C3  RET  ;Pop IP ; Return from function
00000001400019A5  CC  INT3  
00000001400019A6  CC  INT3  
00000001400019A7  CC  INT3  
00000001400019A8  40:53  PUSH RBX  
00000001400019AA  48:83EC20  SUB RSP, 20H  ; Allocate stack space for local variables ( 20H bytes)
00000001400019AE  48:833DC2280000 FF  CMP QWORD PTR [RIP+000028C2H],-01H  
00000001400019B6  48:8BD9  MOV RBX, RCX  
00000001400019B9  7507  JNZ 00000001400019C2  
00000001400019BB  E8 36070000  CALL 00000001400020F6  
00000001400019C0  EB0F  JMP 00000001400019D1  
00000001400019C2  48:8BD3  MOV RDX, RBX  
00000001400019C5  48:8D0DAC280000  LEA RCX,QWORD PTR [RIP+000028ACH]  
00000001400019CC  E8 1F070000  CALL 00000001400020F0  
00000001400019D1  33D2  XOR EDX, EDX  
00000001400019D3  85C0  TEST EAX, EAX  ; Check if EAX is zero
00000001400019D5  48:0F44D3  CMOVE RDX,RBX  
00000001400019D9  48:8BC2  MOV RAX, RDX  
00000001400019DC  48:83C420  ADD RSP, 20H  
00000001400019E0  5B  POP RBX  
00000001400019E1  C3  RET  ;Pop IP ; Return from function
00000001400019E2  CC  INT3  
00000001400019E3  CC  INT3  
00000001400019E4  48:83EC28  SUB RSP, 28H  ; Allocate stack space for local variables ( 28H bytes)
00000001400019E8  E8 BBFFFFFF  CALL 00000001400019A8  
00000001400019ED  48:F7D8  NEG RAX  
00000001400019F0  1BC0  SBB EAX, EAX  
00000001400019F2  F7D8  NEG EAX  
00000001400019F4  FFC8  DEC EAX  
00000001400019F6  48:83C428  ADD RSP, 28H  
00000001400019FA  C3  RET  ;Pop IP ; Return from function
00000001400019FB  CC  INT3  
00000001400019FC  48:895C2418  MOV QWORD PTR SS:[RSP+18H],RBX  
0000000140001A01  55  PUSH RBP  ; Function prologue - save frame pointer
0000000140001A02  48:8BEC  MOV RBP, RSP  ; Function prologue - setup frame pointer
0000000140001A05  48:83EC30  SUB RSP, 30H  ; Allocate stack space for local variables ( 30H bytes)
0000000140001A09  48:8B05F0270000  MOV RAX,QWORD PTR [RIP+000027F0H]  
0000000140001A10  48:BB 32A2DF2D992B0000  MOV RBX, 00002B992DDFA232H  
0000000140001A1A  48:3BC3  CMP RAX, RBX  
0000000140001A1D  7577  JNZ 0000000140001A96  
0000000140001A1F  48:8D4D10  LEA RCX,QWORD PTR SS:[RBP+10H]  ; Function parameter 3 (arg_8)
0000000140001A23  48:C74510 00000000  MOV QWORD PTR SS:[RBP+10H],00000000H  ; Function parameter 3 (arg_8)
0000000140001A2B  FF15E7150000  CALL QWORD PTR [RIP+000015E7H]  
0000000140001A31  48:8B4510  MOV RAX,QWORD PTR SS:[RBP+10H]  ; Function parameter 3 (arg_8)
0000000140001A35  48:8945F0  MOV QWORD PTR SS:[RBP-10H],RAX  ; Local variable at [ebp-10H]
0000000140001A39  FF15D1150000  CALL QWORD PTR [RIP+000015D1H]  
0000000140001A3F  8BC0  MOV EAX, EAX  
0000000140001A41  48:3145F0  XOR QWORD PTR SS:[RBP-10H],RAX  ; Local variable at [ebp-10H]
0000000140001A45  FF15BD150000  CALL QWORD PTR [RIP+000015BDH]  
0000000140001A4B  8BC0  MOV EAX, EAX  
0000000140001A4D  48:8D4D18  LEA RCX,QWORD PTR SS:[RBP+18H]  ; Function parameter at [ebp+18H]
0000000140001A51  48:3145F0  XOR QWORD PTR SS:[RBP-10H],RAX  ; Local variable at [ebp-10H]
0000000140001A55  FF15A5150000  CALL QWORD PTR [RIP+000015A5H]  
0000000140001A5B  8B4518  MOV EAX,DWORD PTR SS:[RBP+18H]  ; Function parameter at [ebp+18H]
0000000140001A5E  48:8D4DF0  LEA RCX,QWORD PTR SS:[RBP-10H]  ; Local variable at [ebp-10H]
0000000140001A62  48:C1E020  SHL RAX, 20H  
0000000140001A66  48:334518  XOR RAX,QWORD PTR SS:[RBP+18H]  ; Function parameter at [ebp+18H]
0000000140001A6A  48:3345F0  XOR RAX,QWORD PTR SS:[RBP-10H]  ; Local variable at [ebp-10H]
0000000140001A6E  48:33C1  XOR RAX, RCX  
0000000140001A71  48:B9 FFFFFFFFFFFF0000  MOV RCX, 0000FFFFFFFFFFFFH  
0000000140001A7B  48:23C1  AND RAX, RCX  
0000000140001A7E  48:B9 33A2DF2D992B0000  MOV RCX, 00002B992DDFA233H  
0000000140001A88  48:3BC3  CMP RAX, RBX  
0000000140001A8B  48:0F44C1  CMOVE RAX,RCX  
0000000140001A8F  48:89056A270000  MOV QWORD PTR [RIP+0000276AH],RAX  
0000000140001A96  48:8B5C2450  MOV RBX,QWORD PTR SS:[RSP+50H]  
0000000140001A9B  48:F7D0  NOT RAX  
0000000140001A9E  48:89059B270000  MOV QWORD PTR [RIP+0000279BH],RAX  
0000000140001AA5  48:83C430  ADD RSP, 30H  
0000000140001AA9  5D  POP RBP  ; Function epilogue - restore frame pointer
0000000140001AAA  C3  RET  ;Pop IP ; Return from function
0000000140001AAB  CC  INT3  
0000000140001AAC  33C0  XOR EAX, EAX  ; Zero EAX (return 0 or clear register)
0000000140001AAE  C3  RET  ;Pop IP ; Return from function
0000000140001AAF  CC  INT3  
0000000140001AB0  B8 01000000  MOV EAX, 00000001H  
0000000140001AB5  C3  RET  ;Pop IP ; Return from function
0000000140001AB6  CC  INT3  
0000000140001AB7  CC  INT3  
0000000140001AB8  B8 00400000  MOV EAX, 00004000H  
0000000140001ABD  C3  RET  ;Pop IP ; Return from function
0000000140001ABE  CC  INT3  
0000000140001ABF  CC  INT3  
0000000140001AC0  48:8D0DE9270000  LEA RCX,QWORD PTR [RIP+000027E9H]  
0000000140001AC7  48:FF2552150000  JMP QWORD PTR [RIP+00001552H]  
0000000140001ACE  CC  INT3  
0000000140001ACF  CC  INT3  
0000000140001AD0  B001  MOV AL, 01H  
0000000140001AD2  C3  RET  ;Pop IP ; Return from function
0000000140001AD3  CC  INT3  
0000000140001AD4  C2 0000  RET 0000H  ; Return from function
0000000140001AD7  CC  INT3  
0000000140001AD8  48:8D05E1270000  LEA RAX,QWORD PTR [RIP+000027E1H]  
0000000140001ADF  C3  RET  ;Pop IP ; Return from function
0000000140001AE0  48:83EC28  SUB RSP, 28H  ; Allocate stack space for local variables ( 28H bytes)
0000000140001AE4  E8 A7F9FFFF  CALL 0000000140001490  
0000000140001AE9  48:8308 24  OR QWORD PTR DS:[RAX],24H  
0000000140001AED  E8 E6FFFFFF  CALL 0000000140001AD8  
0000000140001AF2  48:8308 02  OR QWORD PTR DS:[RAX],02H  
0000000140001AF6  48:83C428  ADD RSP, 28H  
0000000140001AFA  C3  RET  ;Pop IP ; Return from function
0000000140001AFB  CC  INT3  
0000000140001AFC  33C0  XOR EAX, EAX  ; Zero EAX (return 0 or clear register)
0000000140001AFE  3905D4260000  CMP DWORD PTR [RIP+000026D4H],EAX  
0000000140001B04  0F94C0  SETE AL  
0000000140001B07  C3  RET  ;Pop IP ; Return from function
0000000140001B08  48:8D05D9270000  LEA RAX,QWORD PTR [RIP+000027D9H]  
0000000140001B0F  C3  RET  ;Pop IP ; Return from function
0000000140001B10  48:8D05C9270000  LEA RAX,QWORD PTR [RIP+000027C9H]  
0000000140001B17  C3  RET  ;Pop IP ; Return from function
0000000140001B18  C705A6270000 00000000  MOV DWORD PTR [RIP+000027A6H],00000000H  
0000000140001B22  C3  RET  ;Pop IP ; Return from function
0000000140001B23  CC  INT3  
0000000140001B24  48:895C2408  MOV QWORD PTR SS:[RSP+08H],RBX  
0000000140001B29  55  PUSH RBP  ; Function prologue - save frame pointer
0000000140001B2A  48:8D AC24 40FBFFFF  LEA RBP,QWORD PTR SS:[RSP+FFFFFB40H]  
0000000140001B32  48:81EC C0050000  SUB RSP, 000005C0H  ; Allocate stack space for local variables ( 000005C0H bytes)
0000000140001B39  8BD9  MOV EBX, ECX  
0000000140001B3B  B9 17000000  MOV ECX, 00000017H  
0000000140001B40  FF1512150000  CALL QWORD PTR [RIP+00001512H]  
0000000140001B46  85C0  TEST EAX, EAX  ; Check if EAX is zero
0000000140001B48  7404  JZ 0000000140001B4E  
0000000140001B4A  8BCB  MOV ECX, EBX  
0000000140001B4C  CD 29  INT 29H  
0000000140001B4E  B9 03000000  MOV ECX, 00000003H  
0000000140001B53  E8 C0FFFFFF  CALL 0000000140001B18  
0000000140001B58  33D2  XOR EDX, EDX  
0000000140001B5A  48:8D4DF0  LEA RCX,QWORD PTR SS:[RBP-10H]  ; Local variable at [ebp-10H]
0000000140001B5E  41:B8 D0040000  MOV R8D, 000004D0H  
0000000140001B64  E8 09050000  CALL 0000000140002072  
0000000140001B69  48:8D4DF0  LEA RCX,QWORD PTR SS:[RBP-10H]  ; Local variable at [ebp-10H]
0000000140001B6D  FF15B5140000  CALL QWORD PTR [RIP+000014B5H]  
0000000140001B73  48:8B9D E8000000  MOV RBX,QWORD PTR SS:[RBP+000000E8H]  ; Function parameter at [ebp+000000E8H]
0000000140001B7A  48:8D95 D8040000  LEA RDX,QWORD PTR SS:[RBP+000004D8H]  ; Function parameter at [ebp+000004D8H]
0000000140001B81  48:8BCB  MOV RCX, RBX  
0000000140001B84  45:33C0  XOR R8D, R8D  
0000000140001B87  FF15A3140000  CALL QWORD PTR [RIP+000014A3H]  
0000000140001B8D  48:85C0  TEST RAX, RAX  
0000000140001B90  743F  JZ 0000000140001BD1  
0000000140001B92  48:8B95 D8040000  MOV RDX,QWORD PTR SS:[RBP+000004D8H]  ; Function parameter at [ebp+000004D8H]
0000000140001B99  48:8D8D E0040000  LEA RCX,QWORD PTR SS:[RBP+000004E0H]  ; Function parameter at [ebp+000004E0H]
0000000140001BA0  48:C7442438 00000000  MOV QWORD PTR SS:[RSP+38H],00000000H  
0000000140001BA9  4C:8BC8  MOV R9, RAX  
0000000140001BAC  48:894C2430  MOV QWORD PTR SS:[RSP+30H],RCX  
0000000140001BB1  4C:8BC3  MOV R8, RBX  
0000000140001BB4  48:8D8D E8040000  LEA RCX,QWORD PTR SS:[RBP+000004E8H]  ; Function parameter at [ebp+000004E8H]
0000000140001BBB  48:894C2428  MOV QWORD PTR SS:[RSP+28H],RCX  
0000000140001BC0  48:8D4DF0  LEA RCX,QWORD PTR SS:[RBP-10H]  ; Local variable at [ebp-10H]
0000000140001BC4  48:894C2420  MOV QWORD PTR SS:[RSP+20H],RCX  
0000000140001BC9  33C9  XOR ECX, ECX  
0000000140001BCB  FF1567140000  CALL QWORD PTR [RIP+00001467H]  
0000000140001BD1  48:8B85 C8040000  MOV RAX,QWORD PTR SS:[RBP+000004C8H]  ; Function parameter at [ebp+000004C8H]
0000000140001BD8  48:8D4C2450  LEA RCX,QWORD PTR SS:[RSP+50H]  
0000000140001BDD  48:8985 E8000000  MOV QWORD PTR SS:[RBP+000000E8H],RAX  ; Function parameter at [ebp+000000E8H]
0000000140001BE4  33D2  XOR EDX, EDX  
0000000140001BE6  48:8D85 C8040000  LEA RAX,QWORD PTR SS:[RBP+000004C8H]  ; Function parameter at [ebp+000004C8H]
0000000140001BED  41:B8 98000000  MOV R8D, 00000098H  
0000000140001BF3  48:83C008  ADD RAX, 08H  
0000000140001BF7  48:8985 88000000  MOV QWORD PTR SS:[RBP+00000088H],RAX  ; Function parameter at [ebp+00000088H]
0000000140001BFE  E8 6F040000  CALL 0000000140002072  
0000000140001C03  48:8B85 C8040000  MOV RAX,QWORD PTR SS:[RBP+000004C8H]  ; Function parameter at [ebp+000004C8H]
0000000140001C0A  48:89442460  MOV QWORD PTR SS:[RSP+60H],RAX  
0000000140001C0F  C7442450 15000040  MOV DWORD PTR SS:[RSP+50H],40000015H  
0000000140001C17  C7442454 01000000  MOV DWORD PTR SS:[RSP+54H],00000001H  
0000000140001C1F  FF151B140000  CALL QWORD PTR [RIP+0000141BH]  
0000000140001C25  8BD8  MOV EBX, EAX  
0000000140001C27  33C9  XOR ECX, ECX  
0000000140001C29  48:8D442450  LEA RAX,QWORD PTR SS:[RSP+50H]  
0000000140001C2E  48:89442440  MOV QWORD PTR SS:[RSP+40H],RAX  
0000000140001C33  48:8D45F0  LEA RAX,QWORD PTR SS:[RBP-10H]  ; Local variable at [ebp-10H]
0000000140001C37  48:89442448  MOV QWORD PTR SS:[RSP+48H],RAX  
0000000140001C3C  FF150E140000  CALL QWORD PTR [RIP+0000140EH]  
0000000140001C42  48:8D4C2440  LEA RCX,QWORD PTR SS:[RSP+40H]  
0000000140001C47  FF15FB130000  CALL QWORD PTR [RIP+000013FBH]  
0000000140001C4D  85C0  TEST EAX, EAX  ; Check if EAX is zero
0000000140001C4F  750D  JNZ 0000000140001C5E  
0000000140001C51  83FB01  CMP EBX, 01H  ; Compare with zero (null check)
0000000140001C54  7408  JZ 0000000140001C5E  
0000000140001C56  8D4803  LEA ECX,DWORD PTR DS:[RAX+03H]  
0000000140001C59  E8 BAFEFFFF  CALL 0000000140001B18  
0000000140001C5E  48:8B 9C24 D0050000  MOV RBX,QWORD PTR SS:[RSP+000005D0H]  
0000000140001C66  48:81C4 C0050000  ADD RSP, 000005C0H  
0000000140001C6D  5D  POP RBP  ; Function epilogue - restore frame pointer
0000000140001C6E  C3  RET  ;Pop IP ; Return from function
0000000140001C6F  CC  INT3  
0000000140001C70  E9 37FEFFFF  JMP 0000000140001AAC  
0000000140001C75  CC  INT3  
0000000140001C76  CC  INT3  
0000000140001C77  CC  INT3  
0000000140001C78  48:83EC28  SUB RSP, 28H  ; Allocate stack space for local variables ( 28H bytes)
0000000140001C7C  33C9  XOR ECX, ECX  
0000000140001C7E  FF15DC130000  CALL QWORD PTR [RIP+000013DCH]  
0000000140001C84  48:85C0  TEST RAX, RAX  
0000000140001C87  743A  JZ 0000000140001CC3  
0000000140001C89  B9 4D5A0000  MOV ECX, 00005A4DH  
0000000140001C8E  66:3908  CMP WORD PTR DS:[RAX],CX  
0000000140001C91  7530  JNZ 0000000140001CC3  
0000000140001C93  48:63483C  MOVSXD RCX,DWORD PTR DS:[RAX+3CH]  
0000000140001C97  813C01 50450000  CMP DWORD PTR DS:[RAX+RCX],00004550H  ; Compare with zero (null check)
0000000140001C9E  7523  JNZ 0000000140001CC3  
0000000140001CA0  BA 0B020000  MOV EDX, 0000020BH  
0000000140001CA5  66:39540118  CMP WORD PTR DS:[RAX+RCX+18H],DX  
0000000140001CAA  7517  JNZ 0000000140001CC3  
0000000140001CAC  83 BC01 840000000E  CMP DWORD PTR DS:[RAX+RCX+00000084H],0EH  ; Compare with zero (null check)
0000000140001CB4  760D  JBE 0000000140001CC3  
0000000140001CB6  83 BC01 F800000000  CMP DWORD PTR DS:[RAX+RCX+000000F8H],00H  ; Compare with zero (null check)
0000000140001CBE  0F95C0  SETNE AL  
0000000140001CC1  EB02  JMP 0000000140001CC5  
0000000140001CC3  32C0  XOR AL, AL  
0000000140001CC5  48:83C428  ADD RSP, 28H  
0000000140001CC9  C3  RET  ;Pop IP ; Return from function
0000000140001CCA  CC  INT3  
0000000140001CCB  CC  INT3  
0000000140001CCC  48:8D0D09000000  LEA RCX,QWORD PTR [RIP+00000009H]  
0000000140001CD3  48:FF2576130000  JMP QWORD PTR [RIP+00001376H]  
0000000140001CDA  CC  INT3  
0000000140001CDB  CC  INT3  
0000000140001CDC  48:895C2408  MOV QWORD PTR SS:[RSP+08H],RBX  
0000000140001CE1  57  PUSH RDI  
0000000140001CE2  48:83EC20  SUB RSP, 20H  ; Allocate stack space for local variables ( 20H bytes)
0000000140001CE6  48:8B19  MOV RBX,QWORD PTR DS:[RCX]  
0000000140001CE9  48:8BF9  MOV RDI, RCX  
0000000140001CEC  813B 63736DE0  CMP DWORD PTR DS:[RBX], E06D7363H  
0000000140001CF2  7524  JNZ 0000000140001D18  
0000000140001CF4  837B1804  CMP DWORD PTR DS:[RBX+18H],04H  ; Compare with zero (null check)
0000000140001CF8  751E  JNZ 0000000140001D18  
0000000140001CFA  8B5320  MOV EDX,DWORD PTR DS:[RBX+20H]  
0000000140001CFD  81FA 20059319  CMP EDX, 19930520H  
0000000140001D03  7420  JZ 0000000140001D25  
0000000140001D05  8D82 DFFA6CE6  LEA EAX,DWORD PTR DS:[RDX+E66CFADFH]  
0000000140001D0B  83F801  CMP EAX, 01H  ; Compare with zero (null check)
0000000140001D0E  7615  JBE 0000000140001D25  
0000000140001D10  81FA 00409901  CMP EDX, 01994000H  ; Compare with zero (null check)
0000000140001D16  740D  JZ 0000000140001D25  
0000000140001D18  48:8B5C2430  MOV RBX,QWORD PTR SS:[RSP+30H]  
0000000140001D1D  33C0  XOR EAX, EAX  ; Zero EAX (return 0 or clear register)
0000000140001D1F  48:83C420  ADD RSP, 20H  
0000000140001D23  5F  POP RDI  
0000000140001D24  C3  RET  ;Pop IP ; Return from function
0000000140001D25  E8 3C030000  CALL 0000000140002066  
0000000140001D2A  48:8918  MOV QWORD PTR DS:[RAX],RBX  
0000000140001D2D  48:8B5F08  MOV RBX,QWORD PTR DS:[RDI+08H]  
0000000140001D31  E8 36030000  CALL 000000014000206C  
0000000140001D36  48:8918  MOV QWORD PTR DS:[RAX],RBX  
0000000140001D39  E8 BE030000  CALL 00000001400020FC  
0000000140001D3E  CC  INT3  
0000000140001D3F  CC  INT3  
0000000140001D40  48:895C2408  MOV QWORD PTR SS:[RSP+08H],RBX  
0000000140001D45  57  PUSH RDI  
0000000140001D46  48:83EC20  SUB RSP, 20H  ; Allocate stack space for local variables ( 20H bytes)
0000000140001D4A  48:8D1D5F1A0000  LEA RBX,QWORD PTR [RIP+00001A5FH]  
0000000140001D51  48:8D3D581A0000  LEA RDI,QWORD PTR [RIP+00001A58H]  
0000000140001D58  EB12  JMP 0000000140001D6C  
0000000140001D5A  48:8B03  MOV RAX,QWORD PTR DS:[RBX]  
0000000140001D5D  48:85C0  TEST RAX, RAX  
0000000140001D60  7406  JZ 0000000140001D68  
0000000140001D62  FF1538140000  CALL QWORD PTR [RIP+00001438H]  
0000000140001D68  48:83C308  ADD RBX, 08H  
0000000140001D6C  48:3BDF  CMP RBX, RDI  
0000000140001D6F  72E9  JB 0000000140001D5A  
0000000140001D71  48:8B5C2430  MOV RBX,QWORD PTR SS:[RSP+30H]  
0000000140001D76  48:83C420  ADD RSP, 20H  
0000000140001D7A  5F  POP RDI  
0000000140001D7B  C3  RET  ;Pop IP ; Return from function
0000000140001D7C  48:895C2408  MOV QWORD PTR SS:[RSP+08H],RBX  
0000000140001D81  57  PUSH RDI  
0000000140001D82  48:83EC20  SUB RSP, 20H  ; Allocate stack space for local variables ( 20H bytes)
0000000140001D86  48:8D1D331A0000  LEA RBX,QWORD PTR [RIP+00001A33H]  
0000000140001D8D  48:8D3D2C1A0000  LEA RDI,QWORD PTR [RIP+00001A2CH]  
0000000140001D94  EB12  JMP 0000000140001DA8  
0000000140001D96  48:8B03  MOV RAX,QWORD PTR DS:[RBX]  
0000000140001D99  48:85C0  TEST RAX, RAX  
0000000140001D9C  7406  JZ 0000000140001DA4  
0000000140001D9E  FF15FC130000  CALL QWORD PTR [RIP+000013FCH]  
0000000140001DA4  48:83C308  ADD RBX, 08H  
0000000140001DA8  48:3BDF  CMP RBX, RDI  
0000000140001DAB  72E9  JB 0000000140001D96  
0000000140001DAD  48:8B5C2430  MOV RBX,QWORD PTR SS:[RSP+30H]  
0000000140001DB2  48:83C420  ADD RSP, 20H  
0000000140001DB6  5F  POP RDI  
0000000140001DB7  C3  RET  ;Pop IP ; Return from function
0000000140001DB8  48:895C2410  MOV QWORD PTR SS:[RSP+10H],RBX  
0000000140001DBD  48:896C2418  MOV QWORD PTR SS:[RSP+18H],RBP  
0000000140001DC2  48:89742420  MOV QWORD PTR SS:[RSP+20H],RSI  
0000000140001DC7  57  PUSH RDI  
0000000140001DC8  48:83EC10  SUB RSP, 10H  ; Allocate stack space for local variables ( 10H bytes)
0000000140001DCC  33C0  XOR EAX, EAX  ; Zero EAX (return 0 or clear register)
0000000140001DCE  33C9  XOR ECX, ECX  
0000000140001DD0  0FA2  CPUID  
0000000140001DD2  81F1 6E74656C  XOR ECX, 6C65746EH  
0000000140001DD8  81F2 696E6549  XOR EDX, 49656E69H  
0000000140001DDE  0BD1  OR EDX, ECX  
0000000140001DE0  8BE8  MOV EBP, EAX  
0000000140001DE2  B8 01000000  MOV EAX, 00000001H  
0000000140001DE7  81F3 47656E75  XOR EBX, 756E6547H  
0000000140001DED  0BD3  OR EDX, EBX  
0000000140001DEF  8D48FF  LEA ECX,DWORD PTR DS:[RAX-01H]  
0000000140001DF2  0FA2  CPUID  
0000000140001DF4  8BF9  MOV EDI, ECX  
0000000140001DF6  755E  JNZ 0000000140001E56  
0000000140001DF8  25 F03FFF0F  AND EAX, 0FFF3FF0H  
0000000140001DFD  48:C705E8230000 00800000  MOV QWORD PTR [RIP+000023E8H],00008000H  
0000000140001E08  48:C705E5230000 FFFFFFFF  MOV QWORD PTR [RIP+000023E5H],FFFFFFFFH  
0000000140001E13  3D C0060100  CMP EAX, 000106C0H  ; Compare with zero (null check)
0000000140001E18  7428  JZ 0000000140001E42  
0000000140001E1A  3D 60060200  CMP EAX, 00020660H  ; Compare with zero (null check)
0000000140001E1F  7421  JZ 0000000140001E42  
0000000140001E21  3D 70060200  CMP EAX, 00020670H  ; Compare with zero (null check)
0000000140001E26  741A  JZ 0000000140001E42  
0000000140001E28  05 B0F9FCFF  ADD EAX, FFFCF9B0H  
0000000140001E2D  83F820  CMP EAX, 20H  
0000000140001E30  7724  JA 0000000140001E56  
0000000140001E32  48:B9 0100010001000000  MOV RCX, 0000000100010001H  
0000000140001E3C  48:0FA3C1  BT RCX,RAX  
0000000140001E40  7314  JNB 0000000140001E56  
0000000140001E42  44:8B0587240000  MOV R8D,DWORD PTR [RIP+00002487H]  
0000000140001E49  41:83C801  OR R8D, 01H  
0000000140001E4D  44:89057C240000  MOV DWORD PTR [RIP+0000247CH],R8D  
0000000140001E54  EB07  JMP 0000000140001E5D  
0000000140001E56  44:8B0573240000  MOV R8D,DWORD PTR [RIP+00002473H]  
0000000140001E5D  45:33C9  XOR R9D, R9D  
0000000140001E60  41:8BF1  MOV ESI, R9D  
0000000140001E63  45:8BD1  MOV R10D, R9D  
0000000140001E66  45:8BD9  MOV R11D, R9D  
0000000140001E69  83FD07  CMP EBP, 07H  ; Compare with zero (null check)
0000000140001E6C  7C40  JL 0000000140001EAE  
0000000140001E6E  41:8D4107  LEA EAX,DWORD PTR DS:[R9+07H]  
0000000140001E72  33C9  XOR ECX, ECX  
0000000140001E74  0FA2  CPUID  
0000000140001E76  8BF2  MOV ESI, EDX  
0000000140001E78  44:8BCB  MOV R9D, EBX  
0000000140001E7B  0FBAE3 09  BT EBX,09H  
0000000140001E7F  730B  JNB 0000000140001E8C  
0000000140001E81  41:83C802  OR R8D, 02H  
0000000140001E85  44:890544240000  MOV DWORD PTR [RIP+00002444H],R8D  
0000000140001E8C  83F801  CMP EAX, 01H  ; Compare with zero (null check)
0000000140001E8F  7C0D  JL 0000000140001E9E  
0000000140001E91  B8 07000000  MOV EAX, 00000007H  
0000000140001E96  8D48FA  LEA ECX,DWORD PTR DS:[RAX-06H]  
0000000140001E99  0FA2  CPUID  
0000000140001E9B  44:8BD2  MOV R10D, EDX  
0000000140001E9E  B8 24000000  MOV EAX, 00000024H  
0000000140001EA3  3BE8  CMP EBP, EAX  
0000000140001EA5  7C07  JL 0000000140001EAE  
0000000140001EA7  33C9  XOR ECX, ECX  
0000000140001EA9  0FA2  CPUID  
0000000140001EAB  44:8BDB  MOV R11D, EBX  
0000000140001EAE  48:8B052B230000  MOV RAX,QWORD PTR [RIP+0000232BH]  
0000000140001EB5  48:83E0FE  AND RAX, -02H  
0000000140001EB9  C70525230000 01000000  MOV DWORD PTR [RIP+00002325H],00000001H  
0000000140001EC3  C7051F230000 02000000  MOV DWORD PTR [RIP+0000231FH],00000002H  
0000000140001ECD  48:89050C230000  MOV QWORD PTR [RIP+0000230CH],RAX  
0000000140001ED4  0FBAE7 14  BT EDI,14H  
0000000140001ED8  731F  JNB 0000000140001EF9  
0000000140001EDA  48:83E0EF  AND RAX, -11H  
0000000140001EDE  C70500230000 02000000  MOV DWORD PTR [RIP+00002300H],00000002H  
0000000140001EE8  48:8905F1220000  MOV QWORD PTR [RIP+000022F1H],RAX  
0000000140001EEF  C705F3220000 06000000  MOV DWORD PTR [RIP+000022F3H],00000006H  
0000000140001EF9  0FBAE7 1B  BT EDI,1BH  
0000000140001EFD  0F83 33010000  JNB 0000000140002036  
0000000140001F03  33C9  XOR ECX, ECX  
0000000140001F05  0F01D0  XGETBV  
0000000140001F08  48:C1E220  SHL RDX, 20H  
0000000140001F0C  48:0BD0  OR RDX, RAX  
0000000140001F0F  48:89542420  MOV QWORD PTR SS:[RSP+20H],RDX  
0000000140001F14  0FBAE7 1C  BT EDI,1CH  
0000000140001F18  0F83 FC000000  JNB 000000014000201A  
0000000140001F1E  48:8B442420  MOV RAX,QWORD PTR SS:[RSP+20H]  
0000000140001F23  2406  AND AL, 06H  
0000000140001F25  3C06  CMP AL, 06H  ; Compare with zero (null check)
0000000140001F27  0F85 ED000000  JNZ 000000014000201A  
0000000140001F2D  8B05B9220000  MOV EAX,DWORD PTR [RIP+000022B9H]  
0000000140001F33  B2E0  MOV DL, E0H  
0000000140001F35  83C808  OR EAX, 08H  
0000000140001F38  C705A6220000 03000000  MOV DWORD PTR [RIP+000022A6H],00000003H  
0000000140001F42  8905A4220000  MOV DWORD PTR [RIP+000022A4H],EAX  
0000000140001F48  41:F6C120  TEST R9B,20H  
0000000140001F4C  7462  JZ 0000000140001FB0  
0000000140001F4E  83C820  OR EAX, 20H  
0000000140001F51  C7058D220000 05000000  MOV DWORD PTR [RIP+0000228DH],00000005H  
0000000140001F5B  89058B220000  MOV DWORD PTR [RIP+0000228BH],EAX  
0000000140001F61  B9 000003D0  MOV ECX, D0030000H  
0000000140001F66  48:8B0573220000  MOV RAX,QWORD PTR [RIP+00002273H]  
0000000140001F6D  44:23C9  AND R9D, ECX  
0000000140001F70  48:83E0FD  AND RAX, -03H  
0000000140001F74  48:890565220000  MOV QWORD PTR [RIP+00002265H],RAX  
0000000140001F7B  44:3BC9  CMP R9D, ECX  
0000000140001F7E  7537  JNZ 0000000140001FB7  
0000000140001F80  48:8B442420  MOV RAX,QWORD PTR SS:[RSP+20H]  
0000000140001F85  22C2  AND AL, DL  
0000000140001F87  3AC2  CMP AL, DL  
0000000140001F89  7525  JNZ 0000000140001FB0  
0000000140001F8B  48:8B054E220000  MOV RAX,QWORD PTR [RIP+0000224EH]  
0000000140001F92  830D53220000 40  OR DWORD PTR [RIP+00002253H],40H  
0000000140001F99  48:83E0DB  AND RAX, -25H  
0000000140001F9D  C70541220000 06000000  MOV DWORD PTR [RIP+00002241H],00000006H  
0000000140001FA7  48:890532220000  MOV QWORD PTR [RIP+00002232H],RAX  
0000000140001FAE  EB07  JMP 0000000140001FB7  
0000000140001FB0  48:8B0529220000  MOV RAX,QWORD PTR [RIP+00002229H]  
0000000140001FB7  0FBAE6 17  BT ESI,17H  
0000000140001FBB  730C  JNB 0000000140001FC9  
0000000140001FBD  48:0FBAF0 18  BTR RAX,18H  
0000000140001FC2  48:890517220000  MOV QWORD PTR [RIP+00002217H],RAX  
0000000140001FC9  41:0FBAE2 13  BT R10D,13H  
0000000140001FCE  734A  JNB 000000014000201A  
0000000140001FD0  48:8B442420  MOV RAX,QWORD PTR SS:[RSP+20H]  
0000000140001FD5  22C2  AND AL, DL  
0000000140001FD7  3AC2  CMP AL, DL  
0000000140001FD9  753F  JNZ 000000014000201A  
0000000140001FDB  41:8BCB  MOV ECX, R11D  
0000000140001FDE  41:8BC3  MOV EAX, R11D  
0000000140001FE1  48:C1E910  SHR RCX, 10H  
0000000140001FE5  25 FF000400  AND EAX, 000400FFH  
0000000140001FEA  83E106  AND ECX, 06H  
0000000140001FED  8905D9220000  MOV DWORD PTR [RIP+000022D9H],EAX  
0000000140001FF3  48:81C9 29000001  OR RCX, 01000029H  
0000000140001FFA  48:F7D1  NOT RCX  
0000000140001FFD  48:230DDC210000  AND RCX,QWORD PTR [RIP+000021DCH]  
0000000140002004  48:890DD5210000  MOV QWORD PTR [RIP+000021D5H],RCX  
000000014000200B  3C01  CMP AL, 01H  ; Compare with zero (null check)
000000014000200D  760B  JBE 000000014000201A  
000000014000200F  48:83E1BF  AND RCX, -41H  
0000000140002013  48:890DC6210000  MOV QWORD PTR [RIP+000021C6H],RCX  
000000014000201A  41:0FBAE2 15  BT R10D,15H  
000000014000201F  7315  JNB 0000000140002036  
0000000140002021  48:8B442420  MOV RAX,QWORD PTR SS:[RSP+20H]  
0000000140002026  48:0FBAE0 13  BT RAX,13H  
000000014000202B  7309  JNB 0000000140002036  
000000014000202D  48:0FBA35AA210000 07  BTR QWORD PTR [RIP+000021AAH],07H  
0000000140002036  48:8B5C2428  MOV RBX,QWORD PTR SS:[RSP+28H]  
000000014000203B  33C0  XOR EAX, EAX  ; Zero EAX (return 0 or clear register)
000000014000203D  48:8B6C2430  MOV RBP,QWORD PTR SS:[RSP+30H]  ; Function prologue - setup frame pointer
0000000140002042  48:8B742438  MOV RSI,QWORD PTR SS:[RSP+38H]  
0000000140002047  48:83C410  ADD RSP, 10H  
000000014000204B  5F  POP RDI  
000000014000204C  C3  RET  ;Pop IP ; Return from function
000000014000204D  CC  INT3  
000000014000204E  CC  INT3  
000000014000204F  CC  INT3  
0000000140002050  33C0  XOR EAX, EAX  ; Zero EAX (return 0 or clear register)
0000000140002052  3905F8210000  CMP DWORD PTR [RIP+000021F8H],EAX  
0000000140002058  0F95C0  SETNE AL  
000000014000205B  C3  RET  ;Pop IP ; Return from function
000000014000205C  CC  INT3  
000000014000205D  CC  INT3  
000000014000205E  CC  INT3  
000000014000205F  CC  INT3  
0000000140002060  FF250A100000  JMP QWORD PTR [RIP+0000100AH]  
0000000140002066  FF250C100000  JMP QWORD PTR [RIP+0000100CH]  
000000014000206C  FF250E100000  JMP QWORD PTR [RIP+0000100EH]  
0000000140002072  FF2510100000  JMP QWORD PTR [RIP+00001010H]  
0000000140002078  FF25AA100000  JMP QWORD PTR [RIP+000010AAH]  
000000014000207E  FF2574100000  JMP QWORD PTR [RIP+00001074H]  
0000000140002084  FF2536100000  JMP QWORD PTR [RIP+00001036H]  
000000014000208A  FF2558100000  JMP QWORD PTR [RIP+00001058H]  
0000000140002090  FF258A100000  JMP QWORD PTR [RIP+0000108AH]  
0000000140002096  FF2534100000  JMP QWORD PTR [RIP+00001034H]  
000000014000209C  FF2536100000  JMP QWORD PTR [RIP+00001036H]  
00000001400020A2  FF2538100000  JMP QWORD PTR [RIP+00001038H]  
00000001400020A8  FF2582100000  JMP QWORD PTR [RIP+00001082H]  
00000001400020AE  FF253C100000  JMP QWORD PTR [RIP+0000103CH]  
00000001400020B4  FF25B6100000  JMP QWORD PTR [RIP+000010B6H]  
00000001400020BA  FF2540100000  JMP QWORD PTR [RIP+00001040H]  
00000001400020C0  FF2542100000  JMP QWORD PTR [RIP+00001042H]  
00000001400020C6  FF2544100000  JMP QWORD PTR [RIP+00001044H]  
00000001400020CC  FF2546100000  JMP QWORD PTR [RIP+00001046H]  
00000001400020D2  FF2560100000  JMP QWORD PTR [RIP+00001060H]  
00000001400020D8  FF25D20F0000  JMP QWORD PTR [RIP+00000FD2H]  
00000001400020DE  FF25BC0F0000  JMP QWORD PTR [RIP+00000FBCH]  
00000001400020E4  FF257E100000  JMP QWORD PTR [RIP+0000107EH]  
00000001400020EA  FF2550100000  JMP QWORD PTR [RIP+00001050H]  
00000001400020F0  FF2552100000  JMP QWORD PTR [RIP+00001052H]  
00000001400020F6  FF2554100000  JMP QWORD PTR [RIP+00001054H]  
00000001400020FC  FF2556100000  JMP QWORD PTR [RIP+00001056H]  
0000000140002102  FF25880F0000  JMP QWORD PTR [RIP+00000F88H]  
0000000140002108  CC  INT3  
0000000140002109  CC  INT3  
000000014000210A  CC  INT3  
000000014000210B  CC  INT3  
000000014000210C  CC  INT3  
000000014000210D  CC  INT3  
000000014000210E  CC  INT3  
000000014000210F  CC  INT3  
0000000140002110  CC  INT3  
0000000140002111  CC  INT3  
0000000140002112  CC  INT3  
0000000140002113  CC  INT3  
0000000140002114  CC  INT3  
0000000140002115  CC  INT3  
0000000140002116  66:66:0F1F0000 00000000  NOP DWORD PTR DS:[RAX+RAX+00000000H]  
0000000140002120  FFE0  JMP RAX  
0000000140002122  CC  INT3  
0000000140002123  CC  INT3  
0000000140002124  CC  INT3  
0000000140002125  CC  INT3  
0000000140002126  CC  INT3  
0000000140002127  CC  INT3  
0000000140002128  CC  INT3  
0000000140002129  CC  INT3  
000000014000212A  CC  INT3  
000000014000212B  CC  INT3  
000000014000212C  CC  INT3  
000000014000212D  CC  INT3  
000000014000212E  CC  INT3  
000000014000212F  CC  INT3  
0000000140002130  CC  INT3  
0000000140002131  CC  INT3  
0000000140002132  CC  INT3  
0000000140002133  CC  INT3  
0000000140002134  CC  INT3  
0000000140002135  CC  INT3  
0000000140002136  66:66:0F1F0000 00000000  NOP DWORD PTR DS:[RAX+RAX+00000000H]  
0000000140002140  FF255A100000  JMP QWORD PTR [RIP+0000105AH]  
0000000140002146  40:55  PUSH RBP  ; Function prologue - save frame pointer
0000000140002148  48:83EC20  SUB RSP, 20H  ; Allocate stack space for local variables ( 20H bytes)
000000014000214C  48:8BEA  MOV RBP, RDX  
000000014000214F  48:8BD1  MOV RDX, RCX  
0000000140002152  48:8B09  MOV RCX,QWORD PTR DS:[RCX]  
0000000140002155  8B09  MOV ECX,DWORD PTR DS:[RCX]  
0000000140002157  E8 1CFFFFFF  CALL 0000000140002078  
000000014000215C  90  NOP  
000000014000215D  48:83C420  ADD RSP, 20H  
0000000140002161  5D  POP RBP  ; Function epilogue - restore frame pointer
0000000140002162  C3  RET  ;Pop IP ; Return from function
0000000140002163  CC  INT3  
0000000140002164  40:55  PUSH RBP  ; Function prologue - save frame pointer
0000000140002166  48:8BEA  MOV RBP, RDX  
0000000140002169  48:8B01  MOV RAX,QWORD PTR DS:[RCX]  
000000014000216C  33C9  XOR ECX, ECX  
000000014000216E  8138 050000C0  CMP DWORD PTR DS:[RAX], C0000005H  
0000000140002174  0F94C1  SETE CL  
0000000140002177  8BC1  MOV EAX, ECX  
0000000140002179  5D  POP RBP  ; Function epilogue - restore frame pointer
000000014000217A  C3  RET  ;Pop IP ; Return from function
000000014000217B  CC  INT3  
000000014000217C  0000  ADD BYTE PTR DS:[RAX],AL  
000000014000217E  0000  ADD BYTE PTR DS:[RAX],AL  
0000000140002180  0000  ADD BYTE PTR DS:[RAX],AL  
0000000140002182  0000  ADD BYTE PTR DS:[RAX],AL  
0000000140002184  0000  ADD BYTE PTR DS:[RAX],AL  
0000000140002186  0000  ADD BYTE PTR DS:[RAX],AL  
0000000140002188  0000  ADD BYTE PTR DS:[RAX],AL  
000000014000218A  0000  ADD BYTE PTR DS:[RAX],AL  
000000014000218C  0000  ADD BYTE PTR DS:[RAX],AL  
000000014000218E  0000  ADD BYTE PTR DS:[RAX],AL  
0000000140002190  0000  ADD BYTE PTR DS:[RAX],AL  
0000000140002192  0000  ADD BYTE PTR DS:[RAX],AL  
0000000140002194  0000  ADD BYTE PTR DS:[RAX],AL  
0000000140002196  0000  ADD BYTE PTR DS:[RAX],AL  
0000000140002198  0000  ADD BYTE PTR DS:[RAX],AL  
000000014000219A  0000  ADD BYTE PTR DS:[RAX],AL  
000000014000219C  0000  ADD BYTE PTR DS:[RAX],AL  
000000014000219E  0000  ADD BYTE PTR DS:[RAX],AL  
00000001400021A0  0000  ADD BYTE PTR DS:[RAX],AL  
00000001400021A2  0000  ADD BYTE PTR DS:[RAX],AL  
00000001400021A4  0000  ADD BYTE PTR DS:[RAX],AL  
00000001400021A6  0000  ADD BYTE PTR DS:[RAX],AL  
00000001400021A8  0000  ADD BYTE PTR DS:[RAX],AL  
00000001400021AA  0000  ADD BYTE PTR DS:[RAX],AL  
00000001400021AC  0000  ADD BYTE PTR DS:[RAX],AL  
00000001400021AE  0000  ADD BYTE PTR DS:[RAX],AL  
00000001400021B0  0000  ADD BYTE PTR DS:[RAX],AL  
00000001400021B2  0000  ADD BYTE PTR DS:[RAX],AL  
00000001400021B4  0000  ADD BYTE PTR DS:[RAX],AL  
00000001400021B6  0000  ADD BYTE PTR DS:[RAX],AL  
00000001400021B8  0000  ADD BYTE PTR DS:[RAX],AL  
00000001400021BA  0000  ADD BYTE PTR DS:[RAX],AL  
00000001400021BC  0000  ADD BYTE PTR DS:[RAX],AL  
00000001400021BE  0000  ADD BYTE PTR DS:[RAX],AL  
00000001400021C0  0000  ADD BYTE PTR DS:[RAX],AL  
00000001400021C2  0000  ADD BYTE PTR DS:[RAX],AL  
00000001400021C4  0000  ADD BYTE PTR DS:[RAX],AL  
00000001400021C6  0000  ADD BYTE PTR DS:[RAX],AL  
00000001400021C8  0000  ADD BYTE PTR DS:[RAX],AL  
00000001400021CA  0000  ADD BYTE PTR DS:[RAX],AL  
00000001400021CC  0000  ADD BYTE PTR DS:[RAX],AL  
00000001400021CE  0000  ADD BYTE PTR DS:[RAX],AL  
00000001400021D0  0000  ADD BYTE PTR DS:[RAX],AL  
00000001400021D2  0000  ADD BYTE PTR DS:[RAX],AL  
00000001400021D4  0000  ADD BYTE PTR DS:[RAX],AL  
00000001400021D6  0000  ADD BYTE PTR DS:[RAX],AL  
00000001400021D8  0000  ADD BYTE PTR DS:[RAX],AL  
00000001400021DA  0000  ADD BYTE PTR DS:[RAX],AL  
00000001400021DC  0000  ADD BYTE PTR DS:[RAX],AL  
00000001400021DE  0000  ADD BYTE PTR DS:[RAX],AL  
00000001400021E0  0000  ADD BYTE PTR DS:[RAX],AL  
00000001400021E2  0000  ADD BYTE PTR DS:[RAX],AL  
00000001400021E4  0000  ADD BYTE PTR DS:[RAX],AL  
00000001400021E6  0000  ADD BYTE PTR DS:[RAX],AL  
00000001400021E8  0000  ADD BYTE PTR DS:[RAX],AL  
00000001400021EA  0000  ADD BYTE PTR DS:[RAX],AL  
00000001400021EC  0000  ADD BYTE PTR DS:[RAX],AL  
00000001400021EE  0000  ADD BYTE PTR DS:[RAX],AL  
00000001400021F0  0000  ADD BYTE PTR DS:[RAX],AL  
00000001400021F2  0000  ADD BYTE PTR DS:[RAX],AL  
00000001400021F4  0000  ADD BYTE PTR DS:[RAX],AL  
00000001400021F6  0000  ADD BYTE PTR DS:[RAX],AL  
00000001400021F8  0000  ADD BYTE PTR DS:[RAX],AL  
00000001400021FA  0000  ADD BYTE PTR DS:[RAX],AL  
00000001400021FC  0000  ADD BYTE PTR DS:[RAX],AL  
00000001400021FE  0000  ADD BYTE PTR DS:[RAX],AL  
