00401000  55  PUSH EBP  ; Function prologue - save frame pointer
00401001  8BEC  MOV EBP, ESP  ; Function prologue - setup frame pointer
00401003  53  PUSH EBX  
00401004  56  PUSH ESI  
00401005  57  PUSH EDI  
00401006  8BC3  MOV EAX, EBX  
00401008  8BCA  MOV ECX, EDX  
0040100A  8BF7  MOV ESI, EDI  
0040100C  8BE5  MOV ESP, EBP  ; Function epilogue - restore stack pointer
0040100E  8AC3  MOV AL, BL  
00401010  8AEE  MOV CH, DH  
00401012  66:8BC3  MOV AX, BX  
00401015  B8 78563412  MOV EAX, 12345678H  
0040101A  BB EFBEADDE  MOV EBX, DEADBEEFH  
0040101F  B042  MOV AL, 42H  
00401021  66:B9 3412  MOV CX, 1234H  
00401025  8B03  MOV EAX,DWORD PTR DS:[EBX]  
00401027  8B4304  MOV EAX,DWORD PTR DS:[EBX+04H]  
0040102A  8B83 78563412  MOV EAX,DWORD PTR DS:[EBX+12345678H]  
00401030  8B040B  MOV EAX,DWORD PTR DS:[ECX+EBX]  
00401033  8B044B  MOV EAX,DWORD PTR DS:[ECX*2+EBX]  
00401036  8B048B  MOV EAX,DWORD PTR DS:[ECX*4+EBX]  
00401039  8B04CB  MOV EAX,DWORD PTR DS:[ECX*8+EBX]  
0040103C  8B448B10  MOV EAX,DWORD PTR DS:[ECX*4+EBX+10H]  
00401040  8B0424  MOV EAX,DWORD PTR SS:[ESP]  
00401043  8B442404  MOV EAX,DWORD PTR SS:[ESP+04H]  
00401047  8B4500  MOV EAX,DWORD PTR SS:[EBP+00H]  
0040104A  8B4504  MOV EAX,DWORD PTR SS:[EBP+04H]  
0040104D  8903  MOV DWORD PTR DS:[EBX],EAX  
0040104F  89548B10  MOV DWORD PTR DS:[ECX*4+EBX+10H],EDX  
00401053  93  XCHG EAX, EBX  
00401054  87CA  XCHG EDX, ECX  
00401056  86C3  XCHG BL, AL  
00401058  8D448B10  LEA EAX,DWORD PTR DS:[ECX*4+EBX+10H]  
0040105C  8D14FE  LEA EDX,DWORD PTR DS:[EDI*8+ESI]  
0040105F  8D4500  LEA EAX,DWORD PTR SS:[EBP+00H]  
00401062  0FB6C3  MOVZX EAX,BL  
00401065  0FB7C3  MOVZX EAX,BX  
00401068  0FBECA  MOVSX ECX,DL  
0040106B  0FBFCA  MOVSX ECX,DX  
0040106E  66:98  CBW  
00401070  98  CWDE  
00401071  99  CDQ  
00401072  50  PUSH EAX  
00401073  53  PUSH EBX  
00401074  51  PUSH ECX  
00401075  52  PUSH EDX  
00401076  56  PUSH ESI  
00401077  57  PUSH EDI  
00401078  55  PUSH EBP  ; Function prologue - save frame pointer
00401079  5D  POP EBP  ; Function epilogue - restore frame pointer
0040107A  5F  POP EDI  
0040107B  5E  POP ESI  
0040107C  5A  POP EDX  
0040107D  59  POP ECX  
0040107E  5B  POP EBX  
0040107F  58  POP EAX  
00401080  68 78563412  PUSH 12345678H  
00401085  6A42  PUSH 42H  
00401087  60  PUSHAD  
00401088  61  POPAD  
00401089  9C  PUSHFD  
0040108A  9D  POPFD  
0040108B  5F  POP EDI  
0040108C  5E  POP ESI  
0040108D  5B  POP EBX  
0040108E  5D  POP EBP  ; Function epilogue - restore frame pointer
0040108F  C3  RET  ;Pop IP ; Return from function
00401090  55  PUSH EBP  ; Function prologue - save frame pointer
00401091  8BEC  MOV EBP, ESP  ; Function prologue - setup frame pointer
00401093  53  PUSH EBX  
00401094  56  PUSH ESI  
00401095  57  PUSH EDI  
00401096  03C3  ADD EAX, EBX  
00401098  83C010  ADD EAX, 10H  
0040109B  0405  ADD AL, 05H  
0040109D  0103  ADD DWORD PTR DS:[EBX],EAX  
0040109F  030491  ADD EAX,DWORD PTR DS:[EDX*4+ECX]  
004010A2  2BC3  SUB EAX, EBX  
004010A4  83E810  SUB EAX, 10H  
004010A7  2C05  SUB AL, 05H  
004010A9  13C3  ADC EAX, EBX  
004010AB  1BC3  SBB EAX, EBX  
004010AD  15 00010000  ADC EAX, 00000100H  
004010B2  81D9 00020000  SBB ECX, 00000200H  
004010B8  40  INC EAX  
004010B9  43  INC EBX  
004010BA  41  INC ECX  
004010BB  42  INC EDX  
004010BC  4E  DEC ESI  
004010BD  4F  DEC EDI  
004010BE  4D  DEC EBP  
004010BF  F7D8  NEG EAX  
004010C1  F7D3  NOT EBX  
004010C3  F7E3  MUL EBX  
004010C5  F7E9  IMUL ECX  
004010C7  0FAFC3  IMUL EAX,EBX  
004010CA  6BC310  IMUL EAX,EBX,10H  
004010CD  6BC042  IMUL EAX,EAX,42H  
004010D0  3BC3  CMP EAX, EBX  
004010D2  83F800  CMP EAX, 00H  ; Compare with zero (null check)
004010D5  3CFF  CMP AL, FFH  
004010D7  85C3  TEST EBX, EAX  
004010D9  A9 FFFFFFFF  TEST EAX, FFFFFFFFH  
004010DE  A801  TEST AL, 01H  
004010E0  5F  POP EDI  
004010E1  5E  POP ESI  
004010E2  5B  POP EBX  
004010E3  5D  POP EBP  ; Function epilogue - restore frame pointer
004010E4  C3  RET  ;Pop IP ; Return from function
004010E5  CC  INT3  
004010E6  CC  INT3  
004010E7  CC  INT3  
004010E8  CC  INT3  
004010E9  CC  INT3  
004010EA  CC  INT3  
004010EB  CC  INT3  
004010EC  CC  INT3  
004010ED  CC  INT3  
004010EE  CC  INT3  
004010EF  CC  INT3  
004010F0  55  PUSH EBP  ; Function prologue - save frame pointer
004010F1  8BEC  MOV EBP, ESP  ; Function prologue - setup frame pointer
004010F3  53  PUSH EBX  
004010F4  56  PUSH ESI  
004010F5  23C3  AND EAX, EBX  
004010F7  0BCA  OR ECX, EDX  
004010F9  33F7  XOR ESI, EDI  
004010FB  25 00FF00FF  AND EAX, FF00FF00H  
00401100  0D FF00FF00  OR EAX, 00FF00FFH  
00401105  33C0  XOR EAX, EAX  ; Zero EAX (return 0 or clear register)
00401107  D1E0  SHL EAX, 1  
00401109  D3E0  SHL EAX, CL  
0040110B  C1E005  SHL EAX, 05H  
0040110E  D1EB  SHR EBX, 1  
00401110  D3EB  SHR EBX, CL  
00401112  D1F9  SAR ECX, 1  
00401114  D3F9  SAR ECX, CL  
00401116  D1C2  ROL EDX, 1  
00401118  D3C2  ROL EDX, CL  
0040111A  D1CE  ROR ESI, 1  
0040111C  D3CE  ROR ESI, CL  
0040111E  D1D0  RCL EAX, 1  
00401120  D1DB  RCR EBX, 1  
00401122  0FA4D8 04  SHLD EAX,EBX,04H  
00401126  0FA5D8  SHLD EAX,EBX,CL  
00401129  0FACD1 08  SHRD ECX,EDX,08H  
0040112D  0FADD1  SHRD ECX,EDX,CL  
00401130  0FBCC3  BSF EAX,EBX  
00401133  0FBDCA  BSR ECX,EDX  
00401136  0FBAE0 05  BT EAX,05H  
0040113A  0FBAEB 0A  BTS EBX,0AH  
0040113E  0FBAF1 0F  BTR ECX,0FH  
00401142  0FBAFA 14  BTC EDX,14H  
00401146  0FA3D8  BT EAX,EBX  
00401149  0FABD1  BTS ECX,EDX  
0040114C  0FC8  BSWAP EAX  
0040114E  0FCB  BSWAP EBX  
00401150  0FC9  BSWAP ECX  
00401152  0FCA  BSWAP EDX  
00401154  5E  POP ESI  
00401155  5B  POP EBX  
00401156  5D  POP EBP  ; Function epilogue - restore frame pointer
00401157  C3  RET  ;Pop IP ; Return from function
00401158  CC  INT3  
00401159  CC  INT3  
0040115A  CC  INT3  
0040115B  CC  INT3  
0040115C  CC  INT3  
0040115D  CC  INT3  
0040115E  CC  INT3  
0040115F  CC  INT3  
00401160  55  PUSH EBP  ; Function prologue - save frame pointer
00401161  8BEC  MOV EBP, ESP  ; Function prologue - setup frame pointer
00401163  53  PUSH EBX  
00401164  741E  JZ 00401184  
00401166  751C  JNZ 00401184  
00401168  721A  JB 00401184  
0040116A  7318  JNB 00401184  
0040116C  7616  JBE 00401184  
0040116E  7714  JA 00401184  
00401170  7C12  JL 00401184  
00401172  7D10  JGE 00401184  
00401174  7E0E  JLE 00401184  
00401176  7F0C  JG 00401184  
00401178  780A  JS 00401184  
0040117A  7908  JNS 00401184  
0040117C  7A06  JP 00401184  
0040117E  7B04  JNP 00401184  
00401180  7002  JO 00401184  
00401182  7100  JNO 00401184  
00401184  E2FE  LOOP 00401184  
00401186  E1FC  LOOPE 00401184  
00401188  E0FA  LOOPNE 00401184  
0040118A  E8 02000000  CALL 00401191  
0040118F  EB02  JMP 00401193  
00401191  90  NOP  
00401192  C3  RET  ;Pop IP ; Return from function
00401193  0F94C0  SETE AL  
00401196  0F95C3  SETNE BL  
00401199  0F92C1  SETB CL  
0040119C  0F93C2  SETNB DL  
0040119F  0F9CC0  SETL AL  
004011A2  0F9DC3  SETGE BL  
004011A5  0F9EC1  SETLE CL  
004011A8  0F9FC2  SETG DL  
004011AB  0F90C0  SETO AL  
004011AE  0F91C3  SETNO BL  
004011B1  0F98C1  SETS CL  
004011B4  0F99C2  SETNS DL  
004011B7  0F9AC0  SETPE AL  
004011BA  0F9BC3  SETPO BL  
004011BD  0F96C1  SETBE CL  
004011C0  0F97C2  SETA DL  
004011C3  0F44C3  CMOVE EAX,EBX  
004011C6  0F45CA  CMOVNE ECX,EDX  
004011C9  0F42C3  CMOVB EAX,EBX  
004011CC  0F43CA  CMOVNB ECX,EDX  
004011CF  0F4CC3  CMOVL EAX,EBX  
004011D2  0F4DCA  CMOVGE ECX,EDX  
004011D5  0F4EC3  CMOVLE EAX,EBX  
004011D8  0F4FCA  CMOVG ECX,EDX  
004011DB  0F40C3  CMOVO EAX,EBX  
004011DE  0F48C3  CMOVS EAX,EBX  
004011E1  5B  POP EBX  
004011E2  5D  POP EBP  ; Function epilogue - restore frame pointer
004011E3  C3  RET  ;Pop IP ; Return from function
004011E4  CC  INT3  
004011E5  CC  INT3  
004011E6  CC  INT3  
004011E7  CC  INT3  
004011E8  CC  INT3  
004011E9  CC  INT3  
004011EA  CC  INT3  
004011EB  CC  INT3  
004011EC  CC  INT3  
004011ED  CC  INT3  
004011EE  CC  INT3  
004011EF  CC  INT3  
004011F0  55  PUSH EBP  ; Function prologue - save frame pointer
004011F1  8BEC  MOV EBP, ESP  ; Function prologue - setup frame pointer
004011F3  56  PUSH ESI  
004011F4  57  PUSH EDI  
004011F5  A4  MOVS  ;Byte ptr ES:[edi], Byte ptr DS:[esi]
004011F6  66:A5  MOVS  ;Word ptr ES:[edi], Word ptr DS:[esi]
004011F8  A5  MOVS  ;Dword ptr ES:[edi], Dword ptr DS:[esi]
004011F9  AA  STOS  ;Byte ptr ES:[edi]
004011FA  66:AB  STOS  ;Word ptr ES:[edi]
004011FC  AB  STOS  ;Dword ptr ES:[edi]
004011FD  AC  LODS  ;Byte ptr DS:[esi]
004011FE  66:AD  LODS  ;Word ptr DS:[esi]
00401200  AD  LODS  ;Dword ptr DS:[esi]
00401201  A6  CMPS  ;Byte ptr DS:[esi], Byte ptr ES:[edi]
00401202  66:A7  CMPS  ;Word ptr DS:[esi], Word ptr ES:[edi]
00401204  A7  CMPS  ;Dword ptr DS:[esi], Dword ptr ES:[edi]
00401205  AE  SCAS  ;Byte ptr ES:[edi]
00401206  66:AF  SCAS  ;Word ptr ES:[edi]
00401208  AF  SCAS  ;Dword ptr ES:[edi]
00401209  F3:A4  REP MOVS  ;Byte ptr ES:[edi], Byte ptr DS:[esi]
0040120B  F3:A5  REP MOVS  ;Dword ptr ES:[edi], Dword ptr DS:[esi]
0040120D  F3:AA  REP STOS  ;Byte ptr ES:[edi]
0040120F  F3:AB  REP STOS  ;Dword ptr ES:[edi]
00401211  F3:A6  REPE CMPS  ;Byte ptr DS:[esi], Byte ptr ES:[edi]
00401213  F3:A7  REPE CMPS  ;Dword ptr DS:[esi], Dword ptr ES:[edi]
00401215  F2:AE  REPNE SCAS  ;Byte ptr ES:[edi]
00401217  F2:AF  REPNE SCAS  ;Dword ptr ES:[edi]
00401219  5F  POP EDI  
0040121A  5E  POP ESI  
0040121B  5D  POP EBP  ; Function epilogue - restore frame pointer
0040121C  C3  RET  ;Pop IP ; Return from function
0040121D  CC  INT3  
0040121E  CC  INT3  
0040121F  CC  INT3  
00401220  55  PUSH EBP  ; Function prologue - save frame pointer
00401221  8BEC  MOV EBP, ESP  ; Function prologue - setup frame pointer
00401223  53  PUSH EBX  
00401224  56  PUSH ESI  
00401225  57  PUSH EDI  
00401226  90  NOP  
00401227  F8  CLC  ;Clears the Carry Flag
00401228  F9  STC  ;Sets the Carry Flag to 1
00401229  FC  CLD  ;Set Direction Flag to 0
0040122A  FD  STD  ;Set Direction Flag to 1
0040122B  F5  CMC  ;inverts the Carry Flag
0040122C  0FA2  CPUID  
0040122E  0F31  RDTSC  
00401230  D7  XLAT  ;Byte ptr DS:[ebx+al]
00401231  C8 1000 00  ENTER 0010H, 00H  ;Creates a stack frame for a procedure (HLL)
00401235  C9  LEAVE  ;Releases the local variables ; Function epilogue - restore stack frame
00401236  CC  INT3  
00401237  64:A1 00000000  MOV EAX, DWORD PTR FS:[00000000H]  
0040123D  67:8B00  MOV EAX,DWORD PTR DS:[BX+SI]  
00401240  66:8903  MOV WORD PTR DS:[EBX],AX  
00401243  F0:FF00  LOCK INC DWORD PTR DS:[EAX]  
00401246  F0:0FC10B  LOCK XADD DWORD PTR DS:[EBX],ECX  
0040124A  F0:0FB102  LOCK CMPXCHG DWORD PTR DS:[EDX],EAX  
0040124E  0FC70E  CMPXCHG8B QWORD PTR DS:[ESI]  
00401251  0FC118  XADD DWORD PTR DS:[EAX],EBX  
00401254  5F  POP EDI  
00401255  5E  POP ESI  
00401256  5B  POP EBX  
00401257  5D  POP EBP  ; Function epilogue - restore frame pointer
00401258  C3  RET  ;Pop IP ; Return from function
00401259  CC  INT3  
0040125A  CC  INT3  
0040125B  CC  INT3  
0040125C  CC  INT3  
0040125D  CC  INT3  
0040125E  CC  INT3  
0040125F  CC  INT3  
00401260  55  PUSH EBP  ; Function prologue - save frame pointer
00401261  8BEC  MOV EBP, ESP  ; Function prologue - setup frame pointer
00401263  53  PUSH EBX  
00401264  56  PUSH ESI  
00401265  57  PUSH EDI  
00401266  DB08  FISTTP DWORD PTR DS:[EAX]  ;Invalid Instruction
00401268  DD08  FISTTP QWORD PTR DS:[EAX]  ;Invalid Instruction
0040126A  DF08  FISTTP WORD PTR DS:[EAX]  ;Invalid Instruction
0040126C  5F  POP EDI  
0040126D  5E  POP ESI  
0040126E  5B  POP EBX  
0040126F  5D  POP EBP  ; Function epilogue - restore frame pointer
00401270  C3  RET  ;Pop IP ; Return from function
00401271  CC  INT3  
00401272  CC  INT3  
00401273  CC  INT3  
00401274  CC  INT3  
00401275  CC  INT3  
00401276  CC  INT3  
00401277  CC  INT3  
00401278  CC  INT3  
00401279  CC  INT3  
0040127A  CC  INT3  
0040127B  CC  INT3  
0040127C  CC  INT3  
0040127D  CC  INT3  
0040127E  CC  INT3  
0040127F  CC  INT3  
00401280  55  PUSH EBP  ; Function prologue - save frame pointer
00401281  8BEC  MOV EBP, ESP  ; Function prologue - setup frame pointer
00401283  53  PUSH EBX  
00401284  56  PUSH ESI  
00401285  57  PUSH EDI  
00401286  0FAE20  XSAVE DWORD PTR DS:[EAX]  
00401289  0FAE28  XRSTOR DWORD PTR DS:[EAX]  
0040128C  0FAE30  XSAVEOPT DWORD PTR DS:[EAX]  
0040128F  5F  POP EDI  
00401290  5E  POP ESI  
00401291  5B  POP EBX  
00401292  5D  POP EBP  ; Function epilogue - restore frame pointer
00401293  C3  RET  ;Pop IP ; Return from function
00401294  CC  INT3  
00401295  CC  INT3  
00401296  CC  INT3  
00401297  CC  INT3  
00401298  CC  INT3  
00401299  CC  INT3  
0040129A  CC  INT3  
0040129B  CC  INT3  
0040129C  CC  INT3  
0040129D  CC  INT3  
0040129E  CC  INT3  
0040129F  CC  INT3  
004012A0  55  PUSH EBP  ; Function prologue - save frame pointer
004012A1  8BEC  MOV EBP, ESP  ; Function prologue - setup frame pointer
004012A3  53  PUSH EBX  
004012A4  56  PUSH ESI  
004012A5  57  PUSH EDI  
004012A6  0F01C1  VMCALL  
004012A9  0F01C2  VMLAUNCH  
004012AC  0F01C3  VMRESUME  
004012AF  0F01C4  VMXOFF  
004012B2  0F01D0  XGETBV  
004012B5  0F01D1  XSETBV  
004012B8  0F01D5  XEND  
004012BB  0F01D6  XTEST  
004012BE  0F01D8  VMRUN  
004012C1  0F01D9  VMMCALL  
004012C4  0F01DA  VMLOAD  
004012C7  0F01DB  VMSAVE  
004012CA  0F01DC  STGI  
004012CD  0F01DD  CLGI  
004012D0  0F01DE  SKINIT  
004012D3  0F01DF  INVLPGA  
004012D6  0F01F9  RDTSCP  
004012D9  5F  POP EDI  
004012DA  5E  POP ESI  
004012DB  5B  POP EBX  
004012DC  5D  POP EBP  ; Function epilogue - restore frame pointer
004012DD  C3  RET  ;Pop IP ; Return from function
004012DE  CC  INT3  
004012DF  CC  INT3  
004012E0  55  PUSH EBP  ; Function prologue - save frame pointer
004012E1  8BEC  MOV EBP, ESP  ; Function prologue - setup frame pointer
004012E3  53  PUSH EBX  
004012E4  56  PUSH ESI  
004012E5  57  PUSH EDI  
004012E6  F3:0FBDC3  LZCNT EAX,EBX  
004012EA  F3:0FBCC3  TZCNT EAX,EBX  
004012EE  F3:0FBD08  LZCNT ECX,DWORD PTR DS:[EAX]  
004012F2  F3:0FBC10  TZCNT EDX,DWORD PTR DS:[EAX]  
004012F6  5F  POP EDI  
004012F7  5E  POP ESI  
004012F8  5B  POP EBX  
004012F9  5D  POP EBP  ; Function epilogue - restore frame pointer
004012FA  C3  RET  ;Pop IP ; Return from function
004012FB  CC  INT3  
004012FC  CC  INT3  
004012FD  CC  INT3  
004012FE  CC  INT3  
004012FF  CC  INT3  
00401300  55  PUSH EBP  ; Function prologue - save frame pointer
00401301  8BEC  MOV EBP, ESP  ; Function prologue - setup frame pointer
00401303  53  PUSH EBX  
00401304  56  PUSH ESI  
00401305  57  PUSH EDI  
00401306  0FC7F0  RDRAND EAX  
00401309  0FC7F1  RDRAND ECX  
0040130C  0FC7F8  RDSEED EAX  
0040130F  0FC7FB  RDSEED EBX  
00401312  5F  POP EDI  
00401313  5E  POP ESI  
00401314  5B  POP EBX  
00401315  5D  POP EBP  ; Function epilogue - restore frame pointer
00401316  C3  RET  ;Pop IP ; Return from function
00401317  CC  INT3  
00401318  CC  INT3  
00401319  CC  INT3  
0040131A  CC  INT3  
0040131B  CC  INT3  
0040131C  CC  INT3  
0040131D  CC  INT3  
0040131E  CC  INT3  
0040131F  CC  INT3  
00401320  55  PUSH EBP  ; Function prologue - save frame pointer
00401321  8BEC  MOV EBP, ESP  ; Function prologue - setup frame pointer
00401323  53  PUSH EBX  
00401324  56  PUSH ESI  
00401325  57  PUSH EDI  
00401326  66:0F38DCC1  AESENC XMM0, XMM1  
0040132B  66:0F38DDC1  AESENCLAST XMM0, XMM1  
00401330  66:0F38DEC1  AESDEC XMM0, XMM1  
00401335  66:0F38DFC1  AESDECLAST XMM0, XMM1  
0040133A  66:0F38DBC1  AESIMC XMM0, XMM1  
0040133F  66:0F3ADFC1 01  AESKEYGENASSIST XMM0, XMM1, 01H  
00401345  66:0F3A44C1 00  PCLMULQDQ XMM0, XMM1, 00H  
0040134B  5F  POP EDI  
0040134C  5E  POP ESI  
0040134D  5B  POP EBX  
0040134E  5D  POP EBP  ; Function epilogue - restore frame pointer
0040134F  C3  RET  ;Pop IP ; Return from function
00401350  55  PUSH EBP  ; Function prologue - save frame pointer
00401351  8BEC  MOV EBP, ESP  ; Function prologue - setup frame pointer
00401353  53  PUSH EBX  
00401354  56  PUSH ESI  
00401355  57  PUSH EDI  
00401356  0F38C8C1  SHA1NEXTE XMM0, XMM1  
0040135A  0F38C9C1  SHA1MSG1 XMM0, XMM1  
0040135E  0F38CAC1  SHA1MSG2 XMM0, XMM1  
00401362  0F38CBC1  SHA256RNDS2 XMM0, XMM1, XMM0  
00401366  0F38CCC1  SHA256MSG1 XMM0, XMM1  
0040136A  0F38CDC1  SHA256MSG2 XMM0, XMM1  
0040136E  5F  POP EDI  
0040136F  5E  POP ESI  
00401370  5B  POP EBX  
00401371  5D  POP EBP  ; Function epilogue - restore frame pointer
00401372  C3  RET  ;Pop IP ; Return from function
00401373  CC  INT3  
00401374  CC  INT3  
00401375  CC  INT3  
00401376  CC  INT3  
00401377  CC  INT3  
00401378  CC  INT3  
00401379  CC  INT3  
0040137A  CC  INT3  
0040137B  CC  INT3  
0040137C  CC  INT3  
0040137D  CC  INT3  
0040137E  CC  INT3  
0040137F  CC  INT3  
00401380  55  PUSH EBP  ; Function prologue - save frame pointer
00401381  8BEC  MOV EBP, ESP  ; Function prologue - setup frame pointer
00401383  53  PUSH EBX  
00401384  56  PUSH ESI  
00401385  57  PUSH EDI  
00401386  0F38F001  MOVBE EAX, DWORD PTR DS:[ECX]  
0040138A  0F38F101  MOVBE DWORD PTR DS:[ECX], EAX  
0040138E  5F  POP EDI  
0040138F  5E  POP ESI  
00401390  5B  POP EBX  
00401391  5D  POP EBP  ; Function epilogue - restore frame pointer
00401392  C3  RET  ;Pop IP ; Return from function
00401393  CC  INT3  
00401394  CC  INT3  
00401395  CC  INT3  
00401396  CC  INT3  
00401397  CC  INT3  
00401398  CC  INT3  
00401399  CC  INT3  
0040139A  CC  INT3  
0040139B  CC  INT3  
0040139C  CC  INT3  
0040139D  CC  INT3  
0040139E  CC  INT3  
0040139F  CC  INT3  
004013A0  55  PUSH EBP  ; Function prologue - save frame pointer
004013A1  8BEC  MOV EBP, ESP  ; Function prologue - setup frame pointer
004013A3  53  PUSH EBX  
004013A4  56  PUSH ESI  
004013A5  57  PUSH EDI  
004013A6  66:0F38F6C3  ADCX EAX, EBX  
004013AB  F3:0F38F6C3  ADOX EAX, EBX  
004013B0  5F  POP EDI  
004013B1  5E  POP ESI  
004013B2  5B  POP EBX  
004013B3  5D  POP EBP  ; Function epilogue - restore frame pointer
004013B4  C3  RET  ;Pop IP ; Return from function
004013B5  CC  INT3  
004013B6  CC  INT3  
004013B7  CC  INT3  
004013B8  CC  INT3  
004013B9  CC  INT3  
004013BA  CC  INT3  
004013BB  CC  INT3  
004013BC  CC  INT3  
004013BD  CC  INT3  
004013BE  CC  INT3  
004013BF  CC  INT3  
004013C0  55  PUSH EBP  ; Function prologue - save frame pointer
004013C1  8BEC  MOV EBP, ESP  ; Function prologue - setup frame pointer
004013C3  53  PUSH EBX  
004013C4  56  PUSH ESI  
004013C5  57  PUSH EDI  
004013C6  F3:0F1EFB  ENDBR32  
004013CA  F3:0F1EFA  ENDBR64  
004013CE  5F  POP EDI  
004013CF  5E  POP ESI  
004013D0  5B  POP EBX  
004013D1  5D  POP EBP  ; Function epilogue - restore frame pointer
004013D2  C3  RET  ;Pop IP ; Return from function
004013D3  CC  INT3  
004013D4  CC  INT3  
004013D5  CC  INT3  
004013D6  CC  INT3  
004013D7  CC  INT3  
004013D8  CC  INT3  
004013D9  CC  INT3  
004013DA  CC  INT3  
004013DB  CC  INT3  
004013DC  CC  INT3  
004013DD  CC  INT3  
004013DE  CC  INT3  
004013DF  CC  INT3  
004013E0  55  PUSH EBP  ; Function prologue - save frame pointer
004013E1  8BEC  MOV EBP, ESP  ; Function prologue - setup frame pointer
004013E3  53  PUSH EBX  
004013E4  56  PUSH ESI  
004013E5  57  PUSH EDI  
004013E6  C4E260 F2C1  ANDN EAX, EBX, ECX  
004013EB  C4E278 F3D9  BLSI EAX, ECX  
004013F0  C4E278 F3D1  BLSMSK EAX, ECX  
004013F5  C4E278 F3C9  BLSR EAX, ECX  
004013FA  C4E260 F7C1  BEXTR EAX, ECX, EBX  
004013FF  C4E260 F5C1  BZHI EAX, ECX, EBX  
00401404  C4E262 F7C1  SARX EAX, ECX, EBX  
00401409  C4E261 F7C1  SHLX EAX, ECX, EBX  
0040140E  C4E263 F7C1  SHRX EAX, ECX, EBX  
00401413  C4E263 F5C1  PDEP EAX, EBX, ECX  
00401418  C4E262 F5C1  PEXT EAX, EBX, ECX  
0040141D  C4E27B F6D1  MULX EDX, EAX, ECX  
00401422  C4E37B F0C1 05  RORX EAX, ECX, 05H  
00401428  5F  POP EDI  
00401429  5E  POP ESI  
0040142A  5B  POP EBX  
0040142B  5D  POP EBP  ; Function epilogue - restore frame pointer
0040142C  C3  RET  ;Pop IP ; Return from function
0040142D  CC  INT3  
0040142E  CC  INT3  
0040142F  CC  INT3  
00401430  55  PUSH EBP  ; Function prologue - save frame pointer
00401431  8BEC  MOV EBP, ESP  ; Function prologue - setup frame pointer
00401433  E8 C8FBFFFF  CALL 00401000  
00401438  E8 53FCFFFF  CALL 00401090  
0040143D  E8 AEFCFFFF  CALL 004010F0  
00401442  E8 19FDFFFF  CALL 00401160  
00401447  E8 A4FDFFFF  CALL 004011F0  
0040144C  E8 CFFDFFFF  CALL 00401220  
00401451  E8 0AFEFFFF  CALL 00401260  
00401456  E8 25FEFFFF  CALL 00401280  
0040145B  E8 40FEFFFF  CALL 004012A0  
00401460  E8 7BFEFFFF  CALL 004012E0  
00401465  E8 96FEFFFF  CALL 00401300  
0040146A  E8 B1FEFFFF  CALL 00401320  
0040146F  E8 DCFEFFFF  CALL 00401350  
00401474  E8 07FFFFFF  CALL 00401380  
00401479  E8 22FFFFFF  CALL 004013A0  
0040147E  E8 3DFFFFFF  CALL 004013C0  
00401483  E8 58FFFFFF  CALL 004013E0  
00401488  33C0  XOR EAX, EAX  ; Zero EAX (return 0 or clear register)
0040148A  5D  POP EBP  ; Function epilogue - restore frame pointer
0040148B  C3  RET  ;Pop IP ; Return from function
0040148C  56  PUSH ESI  ; SEH __except handler
0040148D  6A01  PUSH 01H  
0040148F  E8 C50C0000  CALL api-ms-win-crt-runtime-l1-1-0!_set_app_type  
00401494  E8 39050000  CALL 004019D2  
00401499  50  PUSH EAX  
0040149A  E8 F00C0000  CALL api-ms-win-crt-stdio-l1-1-0!_set_fmode  
0040149F  E8 27050000  CALL 004019CB  
004014A4  8BF0  MOV ESI, EAX  
004014A6  E8 140D0000  CALL api-ms-win-crt-stdio-l1-1-0!__p__commode  
004014AB  6A01  PUSH 01H  
004014AD  8930  MOV DWORD PTR DS:[EAX],ESI  
004014AF  E8 D9020000  CALL 0040178D  
004014B4  83C40C  ADD ESP, 0CH  
004014B7  5E  POP ESI  
004014B8  84C0  TEST AL, AL  
004014BA  7473  JZ 0040152F  
004014BC  DBE2  FNCLEX  
004014BE  E8 52070000  CALL 00401C15  
004014C3  68 411C4000  PUSH 00401C41H  
004014C8  E8 51040000  CALL 0040191E  
004014CD  E8 FC040000  CALL 004019CE  
004014D2  50  PUSH EAX  
004014D3  E8 8D0C0000  CALL api-ms-win-crt-runtime-l1-1-0!_configure_narrow_argv  
004014D8  59  POP ECX  
004014D9  59  POP ECX  
004014DA  85C0  TEST EAX, EAX  ; Check if EAX is zero
004014DC  7551  JNZ 0040152F  
004014DE  E8 F5040000  CALL 004019D8  
004014E3  E8 4C050000  CALL 00401A34  
004014E8  85C0  TEST EAX, EAX  ; Check if EAX is zero
004014EA  740B  JZ 004014F7  
004014EC  68 CB194000  PUSH 004019CBH  
004014F1  E8 690C0000  CALL api-ms-win-crt-math-l1-1-0!__setusermatherr  
004014F6  59  POP ECX  
004014F7  E8 0C050000  CALL 00401A08  
004014FC  E8 07050000  CALL 00401A08  
00401501  E8 E1040000  CALL 004019E7  
00401506  E8 C0040000  CALL 004019CB  
0040150B  50  PUSH EAX  
0040150C  E8 A20C0000  CALL api-ms-win-crt-locale-l1-1-0!_configthreadlocale  
00401511  59  POP ECX  
00401512  E8 CD040000  CALL 004019E4  
00401517  84C0  TEST AL, AL  
00401519  7405  JZ 00401520  
0040151B  E8 4B0C0000  CALL api-ms-win-crt-runtime-l1-1-0!_initialize_narrow_environment  
00401520  E8 A6040000  CALL 004019CB  
00401525  E8 37060000  CALL 00401B61  
0040152A  85C0  TEST EAX, EAX  ; Check if EAX is zero
0040152C  7501  JNZ 0040152F  
0040152E  C3  RET  ;Pop IP ; Return from function
0040152F  6A07  PUSH 07H  
00401531  E8 16050000  CALL 00401A4C  
00401536  CC  INT3  
00401537  E8 DB040000  CALL 00401A17  
0040153C  33C0  XOR EAX, EAX  ; Zero EAX (return 0 or clear register)
0040153E  C3  RET  ;Pop IP ; Return from function
0040153F  E8 64060000  CALL 00401BA8  ; SEH __except handler
00401544  E8 82040000  CALL 004019CB  
00401549  50  PUSH EAX  
0040154A  E8 6A0C0000  CALL api-ms-win-crt-heap-l1-1-0!_set_new_mode  ; Heap allocation (new)
0040154F  59  POP ECX  
00401550  C3  RET  ;Pop IP ; Return from function
00401551  6A14  PUSH 14H  
00401553  68 C8344000  PUSH 004034C8H  
00401558  E8 13070000  CALL 00401C70  
0040155D  6A01  PUSH 01H  
0040155F  E8 F0010000  CALL 00401754  
00401564  59  POP ECX  
00401565  84C0  TEST AL, AL  
00401567  0F84 53010000  JZ 004016C0  
0040156D  32DB  XOR BL, BL  
0040156F  885DE7  MOV BYTE PTR SS:[EBP-19H],BL  ; Local variable at [ebp-19H]
00401572  C745FC 00000000  MOV DWORD PTR SS:[EBP-04H],00000000H  ; Local variable at [ebp-04H]
00401579  E8 A4010000  CALL 00401722  
0040157E  8845DC  MOV BYTE PTR SS:[EBP-24H],AL  ; Local variable at [ebp-24H]
00401581  A1 88404000  MOV EAX, DWORD PTR DS:[00404088H]  
00401586  33C9  XOR ECX, ECX  
00401588  41  INC ECX  
00401589  3BC1  CMP EAX, ECX  
0040158B  0F84 2F010000  JZ 004016C0  
00401591  85C0  TEST EAX, EAX  ; Check if EAX is zero
00401593  7549  JNZ 004015DE  
00401595  890D88404000  MOV DWORD PTR DS:[00404088H],ECX  
0040159B  68 DC304000  PUSH 004030DCH  
004015A0  68 D0304000  PUSH 004030D0H  
004015A5  E8 D30B0000  CALL api-ms-win-crt-runtime-l1-1-0!_initterm_e  
004015AA  59  POP ECX  
004015AB  59  POP ECX  
004015AC  85C0  TEST EAX, EAX  ; Check if EAX is zero
004015AE  7411  JZ 004015C1  
004015B0  C745FC FEFFFFFF  MOV DWORD PTR SS:[EBP-04H],FFFFFFFEH  ; Local variable at [ebp-04H]
004015B7  B8 FF000000  MOV EAX, 000000FFH  
004015BC  E9 EF000000  JMP 004016B0  
004015C1  68 CC304000  PUSH 004030CCH  
004015C6  68 C4304000  PUSH 004030C4H  
004015CB  E8 A70B0000  CALL api-ms-win-crt-runtime-l1-1-0!_initterm  
004015D0  59  POP ECX  
004015D1  59  POP ECX  
004015D2  C70588404000 02000000  MOV DWORD PTR DS:[00404088H],00000002H  
004015DC  EB05  JMP 004015E3  
004015DE  8AD9  MOV BL, CL  
004015E0  885DE7  MOV BYTE PTR SS:[EBP-19H],BL  ; Local variable at [ebp-19H]
004015E3  FF75DC  PUSH DWORD PTR SS:[EBP-24H]  ; Local variable at [ebp-24H]
004015E6  E8 C0020000  CALL 004018AB  
004015EB  59  POP ECX  
004015EC  E8 4F040000  CALL 00401A40  
004015F1  8BF0  MOV ESI, EAX  
004015F3  33FF  XOR EDI, EDI  
004015F5  393E  CMP DWORD PTR DS:[ESI],EDI  
004015F7  741B  JZ 00401614  
004015F9  56  PUSH ESI  
004015FA  E8 15020000  CALL 00401814  
004015FF  59  POP ECX  
00401600  84C0  TEST AL, AL  
00401602  7410  JZ 00401614  
00401604  8B36  MOV ESI,DWORD PTR DS:[ESI]  
00401606  57  PUSH EDI  
00401607  6A02  PUSH 02H  
00401609  57  PUSH EDI  
0040160A  8BCE  MOV ECX, ESI  
0040160C  FF15BC304000  CALL DWORD PTR DS:[004030BCH]  
00401612  FFD6  CALL ESI  
00401614  E8 2D040000  CALL 00401A46  
00401619  8BF0  MOV ESI, EAX  
0040161B  393E  CMP DWORD PTR DS:[ESI],EDI  
0040161D  7413  JZ 00401632  
0040161F  56  PUSH ESI  
00401620  E8 EF010000  CALL 00401814  
00401625  59  POP ECX  
00401626  84C0  TEST AL, AL  
00401628  7408  JZ 00401632  
0040162A  FF36  PUSH DWORD PTR DS:[ESI]  
0040162C  E8 7C0B0000  CALL api-ms-win-crt-runtime-l1-1-0!_register_thread_local_exe_atexit_callback  
00401631  59  POP ECX  
00401632  E8 3A0B0000  CALL api-ms-win-crt-runtime-l1-1-0!_get_initial_narrow_environment  
00401637  8BF8  MOV EDI, EAX  
00401639  E8 5D0B0000  CALL api-ms-win-crt-runtime-l1-1-0!__p___argv  
0040163E  8B30  MOV ESI,DWORD PTR DS:[EAX]  
00401640  E8 500B0000  CALL api-ms-win-crt-runtime-l1-1-0!__p___argc  
00401645  57  PUSH EDI  
00401646  56  PUSH ESI  
00401647  FF30  PUSH DWORD PTR DS:[EAX]  
00401649  E8 E2FDFFFF  CALL 00401430  
0040164E  83C40C  ADD ESP, 0CH  
00401651  8BF0  MOV ESI, EAX  
00401653  E8 0E050000  CALL 00401B66  
00401658  84C0  TEST AL, AL  
0040165A  746B  JZ 004016C7  
0040165C  84DB  TEST BL, BL  
0040165E  7505  JNZ 00401665  
00401660  E8 3C0B0000  CALL api-ms-win-crt-runtime-l1-1-0!_cexit  
00401665  6A00  PUSH 00H  
00401667  6A01  PUSH 01H  
00401669  E8 5A020000  CALL 004018C8  
0040166E  59  POP ECX  
0040166F  59  POP ECX  
00401670  C745FC FEFFFFFF  MOV DWORD PTR SS:[EBP-04H],FFFFFFFEH  ; Local variable at [ebp-04H]
00401677  8BC6  MOV EAX, ESI  
00401679  EB35  JMP 004016B0  
0040167B  8B4DEC  MOV ECX,DWORD PTR SS:[EBP-14H]  ; Local variable at [ebp-14H]
0040167E  8B01  MOV EAX,DWORD PTR DS:[ECX]  
00401680  8B00  MOV EAX,DWORD PTR DS:[EAX]  
00401682  8945E0  MOV DWORD PTR SS:[EBP-20H],EAX  ; Local variable at [ebp-20H]
00401685  51  PUSH ECX  
00401686  50  PUSH EAX  
00401687  E8 C70A0000  CALL api-ms-win-crt-runtime-l1-1-0!_seh_filter_exe  
0040168C  59  POP ECX  
0040168D  59  POP ECX  
0040168E  C3  RET  ;Pop IP ; Return from function
0040168F  8B65E8  MOV ESP,DWORD PTR SS:[EBP-18H]  ; Function epilogue - restore stack pointer
00401692  E8 CF040000  CALL 00401B66  
00401697  84C0  TEST AL, AL  
00401699  7432  JZ 004016CD  
0040169B  807DE700  CMP BYTE PTR SS:[EBP-19H],00H  ; Local variable at [ebp-19H]
0040169F  7505  JNZ 004016A6  
004016A1  E8 010B0000  CALL api-ms-win-crt-runtime-l1-1-0!_c_exit  
004016A6  C745FC FEFFFFFF  MOV DWORD PTR SS:[EBP-04H],FFFFFFFEH  ; Local variable at [ebp-04H]
004016AD  8B45E0  MOV EAX,DWORD PTR SS:[EBP-20H]  ; Local variable at [ebp-20H]
004016B0  8B4DF0  MOV ECX,DWORD PTR SS:[EBP-10H]  ; Local variable at [ebp-10H]
004016B3  64:890D00000000  MOV DWORD PTR FS:[00000000H],ECX  
004016BA  59  POP ECX  
004016BB  5F  POP EDI  
004016BC  5E  POP ESI  
004016BD  5B  POP EBX  
004016BE  C9  LEAVE  ;Releases the local variables ; Function epilogue - restore stack frame
004016BF  C3  RET  ;Pop IP ; Return from function
004016C0  6A07  PUSH 07H  
004016C2  E8 85030000  CALL 00401A4C  
004016C7  56  PUSH ESI  
004016C8  E8 B60A0000  CALL api-ms-win-crt-runtime-l1-1-0!exit  
004016CD  FF75E0  PUSH DWORD PTR SS:[EBP-20H]  ; Local variable at [ebp-20H]
004016D0  E8 B40A0000  CALL api-ms-win-crt-runtime-l1-1-0!_exit  
004016D5  CC  INT3  
    ; ===========[ Program Entry Point ]===========  
004016D6  E8 A5020000  CALL 00401980  
004016DB  E9 71FEFFFF  JMP 00401551  
004016E0  55  DB 55H  ; 'U'
004016E1  8B  DB 8BH  ; '‹'
004016E2  EC  DB 0ECH  ; 'ě'
004016E3  8B  DB 8BH  ; '‹'
004016E4  45  DB 45H  ; 'E'
004016E5  08  DB 08H  ; ''
004016E6  56  DB 56H  ; 'V'
004016E7  8B  DB 8BH  ; '‹'
004016E8  48  DB 48H  ; 'H'
004016E9  3C  DB 3CH  ; '<'
004016EA  03  DB 03H  ; ''
004016EB  C8  DB 0C8H  ; 'Č'
004016EC  0F  DB 0FH  ; ''
004016ED  B7  DB 0B7H  ; '·'
004016EE  41  DB 41H  ; 'A'
004016EF  14  DB 14H  ; ''
004016F0  8D  DB 8DH  ; 'Ť'
004016F1  51  DB 51H  ; 'Q'
004016F2  18  DB 18H  ; ''
004016F3  03  DB 03H  ; ''
004016F4  D0  DB 0D0H  ; 'Đ'
004016F5  0F  DB 0FH  ; ''
004016F6  B7  DB 0B7H  ; '·'
004016F7  41  DB 41H  ; 'A'
004016F8  06  DB 06H  ; ''
004016F9  6B  DB 6BH  ; 'k'
004016FA  F0  DB 0F0H  ; 'đ'
004016FB  28  DB 28H  ; '('
004016FC  03  DB 03H  ; ''
004016FD  F2  DB 0F2H  ; 'ň'
004016FE  EB  DB 0EBH  ; 'ë'
004016FF  15  DB 15H  ; ''
00401700  8B4A0C  MOV ECX,DWORD PTR DS:[EDX+0CH]  
00401703  394D0C  CMP DWORD PTR SS:[EBP+0CH],ECX  ; Function parameter 2 (arg_4)
00401706  720A  JB 00401712  
00401708  8B4208  MOV EAX,DWORD PTR DS:[EDX+08H]  
0040170B  03C1  ADD EAX, ECX  
0040170D  39450C  CMP DWORD PTR SS:[EBP+0CH],EAX  ; Function parameter 2 (arg_4)
00401710  720C  JB 0040171E  
00401712  83C228  ADD EDX, 28H  
00401715  3BD6  CMP EDX, ESI  
00401717  75E7  JNZ 00401700  
00401719  33C0  XOR EAX, EAX  ; Zero EAX (return 0 or clear register)
0040171B  5E  POP ESI  
0040171C  5D  POP EBP  ; Function epilogue - restore frame pointer
0040171D  C3  RET  ;Pop IP ; Return from function
0040171E  8BC2  MOV EAX, EDX  
00401720  EBF9  JMP 0040171B  
00401722  56  PUSH ESI  
00401723  E8 D6080000  CALL 00401FFE  
00401728  85C0  TEST EAX, EAX  ; Check if EAX is zero
0040172A  7420  JZ 0040174C  
0040172C  64:A1 18000000  MOV EAX, DWORD PTR FS:[00000018H]  
00401732  BE 8C404000  MOV ESI, 0040408CH  
00401737  8B5004  MOV EDX,DWORD PTR DS:[EAX+04H]  
0040173A  EB04  JMP 00401740  
0040173C  3BD0  CMP EDX, EAX  
0040173E  7410  JZ 00401750  
00401740  33C0  XOR EAX, EAX  ; Zero EAX (return 0 or clear register)
00401742  8BCA  MOV ECX, EDX  
00401744  F0:0FB10E  LOCK CMPXCHG DWORD PTR DS:[ESI],ECX  
00401748  85C0  TEST EAX, EAX  ; Check if EAX is zero
0040174A  75F0  JNZ 0040173C  
0040174C  32C0  XOR AL, AL  
0040174E  5E  POP ESI  
0040174F  C3  RET  ;Pop IP ; Return from function
00401750  B001  MOV AL, 01H  
00401752  5E  POP ESI  
00401753  C3  RET  ;Pop IP ; Return from function
    ; ====== Proc_00401754 Proc ======  
00401754  55  PUSH EBP  ; Function prologue - save frame pointer
00401755  8BEC  MOV EBP, ESP  ; Function prologue - setup frame pointer
00401757  837D0800  CMP DWORD PTR SS:[EBP+08H],00H  ; Function parameter 1 (arg_0)
0040175B  7507  JNZ 00401764  
0040175D  C60590404000 01  MOV BYTE PTR DS:[00404090H],01H  
00401764  E8 7B050000  CALL 00401CE4  
00401769  E8 76020000  CALL 004019E4  
0040176E  84C0  TEST AL, AL  
00401770  7504  JNZ 00401776  
00401772  32C0  XOR AL, AL  
00401774  5D  POP EBP  ; Function epilogue - restore frame pointer
00401775  C3  RET  ;Pop IP ; Return from function
00401776  E8 69020000  CALL 004019E4  
0040177B  84C0  TEST AL, AL  
0040177D  750A  JNZ 00401789  
0040177F  6A00  PUSH 00H  
00401781  E8 5E020000  CALL 004019E4  
00401786  59  POP ECX  
00401787  EBE9  JMP 00401772  
00401789  B001  MOV AL, 01H  
0040178B  5D  POP EBP  ; Function epilogue - restore frame pointer
0040178C  C3  RET  ; Proc_00401754 endp ; Return from function
0040178D  55  PUSH EBP  ; Function prologue - save frame pointer
0040178E  8BEC  MOV EBP, ESP  ; Function prologue - setup frame pointer
00401790  803D91404000 00  CMP BYTE PTR DS:[00404091H],00H  ; Compare with zero (null check)
00401797  7404  JZ 0040179D  
00401799  B001  MOV AL, 01H  
0040179B  5D  POP EBP  ; Function epilogue - restore frame pointer
0040179C  C3  RET  ;Pop IP ; Return from function
0040179D  56  PUSH ESI  
0040179E  8B7508  MOV ESI,DWORD PTR SS:[EBP+08H]  ; Function parameter 1 (arg_0)
004017A1  85F6  TEST ESI, ESI  
004017A3  7405  JZ 004017AA  
004017A5  83FE01  CMP ESI, 01H  ; Compare with zero (null check)
004017A8  7562  JNZ 0040180C  
004017AA  E8 4F080000  CALL 00401FFE  
004017AF  85C0  TEST EAX, EAX  ; Check if EAX is zero
004017B1  7426  JZ 004017D9  
004017B3  85F6  TEST ESI, ESI  
004017B5  7522  JNZ 004017D9  
004017B7  68 94404000  PUSH 00404094H  
004017BC  E8 040A0000  CALL api-ms-win-crt-runtime-l1-1-0!_initialize_onexit_table  
004017C1  59  POP ECX  
004017C2  85C0  TEST EAX, EAX  ; Check if EAX is zero
004017C4  750F  JNZ 004017D5  
004017C6  68 A0404000  PUSH 004040A0H  
004017CB  E8 F5090000  CALL api-ms-win-crt-runtime-l1-1-0!_initialize_onexit_table  
004017D0  59  POP ECX  
004017D1  85C0  TEST EAX, EAX  ; Check if EAX is zero
004017D3  742B  JZ 00401800  
004017D5  32C0  XOR AL, AL  
004017D7  EB30  JMP 00401809  
004017D9  83C9FF  OR ECX, -01H  
004017DC  890D94404000  MOV DWORD PTR DS:[00404094H],ECX  
004017E2  890D98404000  MOV DWORD PTR DS:[00404098H],ECX  
004017E8  890D9C404000  MOV DWORD PTR DS:[0040409CH],ECX  
004017EE  890DA0404000  MOV DWORD PTR DS:[004040A0H],ECX  
004017F4  890DA4404000  MOV DWORD PTR DS:[004040A4H],ECX  
004017FA  890DA8404000  MOV DWORD PTR DS:[004040A8H],ECX  
00401800  C60591404000 01  MOV BYTE PTR DS:[00404091H],01H  
00401807  B001  MOV AL, 01H  
00401809  5E  POP ESI  
0040180A  5D  POP EBP  ; Function epilogue - restore frame pointer
0040180B  C3  RET  ;Pop IP ; Return from function
0040180C  6A05  PUSH 05H  
0040180E  E8 39020000  CALL 00401A4C  
00401813  CC  INT3  
00401814  6A08  PUSH 08H  
00401816  68 E8344000  PUSH 004034E8H  
0040181B  E8 50040000  CALL 00401C70  
00401820  C745FC 00000000  MOV DWORD PTR SS:[EBP-04H],00000000H  ; Local variable at [ebp-04H]
00401827  B8 4D5A0000  MOV EAX, 00005A4DH  
0040182C  66:390500004000  CMP WORD PTR DS:[00400000H],AX  
00401833  755D  JNZ 00401892  
00401835  A1 3C004000  MOV EAX, DWORD PTR DS:[0040003CH]  
0040183A  81B8 00004000 50450000  CMP DWORD PTR DS:[EAX+00400000H],00004550H  ; Compare with zero (null check)
00401844  754C  JNZ 00401892  
00401846  B9 0B010000  MOV ECX, 0000010BH  
0040184B  66:3988 18004000  CMP WORD PTR DS:[EAX+00400018H],CX  
00401852  753E  JNZ 00401892  
00401854  8B4508  MOV EAX,DWORD PTR SS:[EBP+08H]  ; Function parameter 1 (arg_0)
00401857  B9 00004000  MOV ECX, 00400000H  
0040185C  2BC1  SUB EAX, ECX  
0040185E  50  PUSH EAX  
0040185F  51  PUSH ECX  
00401860  E8 7BFEFFFF  CALL 004016E0  
00401865  59  POP ECX  
00401866  59  POP ECX  
00401867  85C0  TEST EAX, EAX  ; Check if EAX is zero
00401869  7427  JZ 00401892  
0040186B  83782400  CMP DWORD PTR DS:[EAX+24H],00H  ; Compare with zero (null check)
0040186F  7C21  JL 00401892  
00401871  C745FC FEFFFFFF  MOV DWORD PTR SS:[EBP-04H],FFFFFFFEH  ; Local variable at [ebp-04H]
00401878  B001  MOV AL, 01H  
0040187A  EB1F  JMP 0040189B  
0040187C  8B45EC  MOV EAX,DWORD PTR SS:[EBP-14H]  ; Local variable at [ebp-14H]
0040187F  8B00  MOV EAX,DWORD PTR DS:[EAX]  
00401881  33C9  XOR ECX, ECX  
00401883  8138 050000C0  CMP DWORD PTR DS:[EAX], C0000005H  
00401889  0F94C1  SETE CL  
0040188C  8BC1  MOV EAX, ECX  
0040188E  C3  RET  ;Pop IP ; Return from function
0040188F  8B65E8  MOV ESP,DWORD PTR SS:[EBP-18H]  ; Function epilogue - restore stack pointer
00401892  C745FC FEFFFFFF  MOV DWORD PTR SS:[EBP-04H],FFFFFFFEH  ; Local variable at [ebp-04H]
00401899  32C0  XOR AL, AL  
0040189B  8B4DF0  MOV ECX,DWORD PTR SS:[EBP-10H]  ; Local variable at [ebp-10H]
0040189E  64:890D00000000  MOV DWORD PTR FS:[00000000H],ECX  
004018A5  59  POP ECX  
004018A6  5F  POP EDI  
004018A7  5E  POP ESI  
004018A8  5B  POP EBX  
004018A9  C9  LEAVE  ;Releases the local variables ; Function epilogue - restore stack frame
004018AA  C3  RET  ;Pop IP ; Return from function
004018AB  55  PUSH EBP  ; Function prologue - save frame pointer
004018AC  8BEC  MOV EBP, ESP  ; Function prologue - setup frame pointer
004018AE  E8 4B070000  CALL 00401FFE  
004018B3  85C0  TEST EAX, EAX  ; Check if EAX is zero
004018B5  740F  JZ 004018C6  
004018B7  807D0800  CMP BYTE PTR SS:[EBP+08H],00H  ; Function parameter 1 (arg_0)
004018BB  7509  JNZ 004018C6  
004018BD  33C0  XOR EAX, EAX  ; Zero EAX (return 0 or clear register)
004018BF  B9 8C404000  MOV ECX, 0040408CH  
004018C4  8701  XCHG DWORD PTR DS:[ECX],EAX  
004018C6  5D  POP EBP  ; Function epilogue - restore frame pointer
004018C7  C3  RET  ;Pop IP ; Return from function
004018C8  55  PUSH EBP  ; Function prologue - save frame pointer
004018C9  8BEC  MOV EBP, ESP  ; Function prologue - setup frame pointer
004018CB  803D90404000 00  CMP BYTE PTR DS:[00404090H],00H  ; Compare with zero (null check)
004018D2  7406  JZ 004018DA  
004018D4  807D0C00  CMP BYTE PTR SS:[EBP+0CH],00H  ; Function parameter 2 (arg_4)
004018D8  7512  JNZ 004018EC  
004018DA  FF7508  PUSH DWORD PTR SS:[EBP+08H]  ; Function parameter 1 (arg_0)
004018DD  E8 02010000  CALL 004019E4  
004018E2  FF7508  PUSH DWORD PTR SS:[EBP+08H]  ; Function parameter 1 (arg_0)
004018E5  E8 FA000000  CALL 004019E4  
004018EA  59  POP ECX  
004018EB  59  POP ECX  
004018EC  B001  MOV AL, 01H  
004018EE  5D  POP EBP  ; Function epilogue - restore frame pointer
004018EF  C3  RET  ;Pop IP ; Return from function
004018F0  55  PUSH EBP  ; Function prologue - save frame pointer
004018F1  8BEC  MOV EBP, ESP  ; Function prologue - setup frame pointer
004018F3  833D94404000 FF  CMP DWORD PTR DS:[00404094H],-01H  
004018FA  FF7508  PUSH DWORD PTR SS:[EBP+08H]  ; Function parameter 1 (arg_0)
004018FD  7507  JNZ 00401906  
004018FF  E8 CD080000  CALL api-ms-win-crt-runtime-l1-1-0!_crt_atexit  
00401904  EB0B  JMP 00401911  
00401906  68 94404000  PUSH 00404094H  
0040190B  E8 BB080000  CALL api-ms-win-crt-runtime-l1-1-0!_register_onexit_function  
00401910  59  POP ECX  
00401911  59  POP ECX  
00401912  33C9  XOR ECX, ECX  
00401914  85C0  TEST EAX, EAX  ; Check if EAX is zero
00401916  0F444D08  CMOVE ECX,DWORD PTR SS:[EBP+08H]  ; Function parameter 1 (arg_0)
0040191A  8BC1  MOV EAX, ECX  
0040191C  5D  POP EBP  ; Function epilogue - restore frame pointer
0040191D  C3  RET  ;Pop IP ; Return from function
0040191E  55  PUSH EBP  ; Function prologue - save frame pointer
0040191F  8BEC  MOV EBP, ESP  ; Function prologue - setup frame pointer
00401921  FF7508  PUSH DWORD PTR SS:[EBP+08H]  ; Function parameter 1 (arg_0)
00401924  E8 C7FFFFFF  CALL 004018F0  
00401929  F7D8  NEG EAX  
0040192B  59  POP ECX  
0040192C  1BC0  SBB EAX, EAX  
0040192E  F7D8  NEG EAX  
00401930  48  DEC EAX  
00401931  5D  POP EBP  ; Function epilogue - restore frame pointer
00401932  C3  RET  ;Pop IP ; Return from function
    ; ====== Proc_00401933 Proc ======  
00401933  55  PUSH EBP  ; Function prologue - save frame pointer
00401934  8BEC  MOV EBP, ESP  ; Function prologue - setup frame pointer
00401936  83EC14  SUB ESP, 14H  ; Allocate stack space for local variables ( 14H bytes)
00401939  8D45F4  LEA EAX,DWORD PTR SS:[EBP-0CH]  ; Local variable at [ebp-0CH]
0040193C  0F57C0  XORPS XMM0,XMM0  
0040193F  50  PUSH EAX  
00401940  66:0F1345F4  MOVLPD QWORD PTR SS:[EBP-0CH],XMM0  ; Local variable at [ebp-0CH]
00401945  FF150C304000  CALL DWORD PTR DS:[0040300CH]  
0040194B  8B45F8  MOV EAX,DWORD PTR SS:[EBP-08H]  ; Local variable at [ebp-08H]
0040194E  3345F4  XOR EAX,DWORD PTR SS:[EBP-0CH]  ; Local variable at [ebp-0CH]
00401951  8945FC  MOV DWORD PTR SS:[EBP-04H],EAX  ; Local variable at [ebp-04H]
00401954  FF1508304000  CALL DWORD PTR DS:[00403008H]  
0040195A  3145FC  XOR DWORD PTR SS:[EBP-04H],EAX  ; Local variable at [ebp-04H]
0040195D  FF1504304000  CALL DWORD PTR DS:[00403004H]  
00401963  3145FC  XOR DWORD PTR SS:[EBP-04H],EAX  ; Local variable at [ebp-04H]
00401966  8D45EC  LEA EAX,DWORD PTR SS:[EBP-14H]  ; Local variable at [ebp-14H]
00401969  50  PUSH EAX  
0040196A  FF1500304000  CALL DWORD PTR DS:[00403000H]  
00401970  8B45F0  MOV EAX,DWORD PTR SS:[EBP-10H]  ; Local variable at [ebp-10H]
00401973  8D4DFC  LEA ECX,DWORD PTR SS:[EBP-04H]  ; Local variable at [ebp-04H]
00401976  3345EC  XOR EAX,DWORD PTR SS:[EBP-14H]  ; Local variable at [ebp-14H]
00401979  3345FC  XOR EAX,DWORD PTR SS:[EBP-04H]  ; Local variable at [ebp-04H]
0040197C  33C1  XOR EAX, ECX  
0040197E  C9  LEAVE  ;Releases the local variables ; Function epilogue - restore stack frame
0040197F  C3  RET  ; Proc_00401933 endp ; Return from function
    ; ====== Proc_00401980 Proc ======  
00401980  8B0D40404000  MOV ECX,DWORD PTR DS:[00404040H]  
00401986  56  PUSH ESI  
00401987  57  PUSH EDI  
00401988  BF 4EE640BB  MOV EDI, BB40E64EH  
0040198D  BE 0000FFFF  MOV ESI, FFFF0000H  
00401992  3BCF  CMP ECX, EDI  
00401994  7404  JZ 0040199A  
00401996  85CE  TEST ESI, ECX  
00401998  7526  JNZ 004019C0  
0040199A  E8 94FFFFFF  CALL 00401933  
0040199F  8BC8  MOV ECX, EAX  
004019A1  3BCF  CMP ECX, EDI  
004019A3  7507  JNZ 004019AC  
004019A5  B9 4FE640BB  MOV ECX, BB40E64FH  
004019AA  EB0E  JMP 004019BA  
004019AC  85CE  TEST ESI, ECX  
004019AE  750A  JNZ 004019BA  
004019B0  0D 11470000  OR EAX, 00004711H  
004019B5  C1E010  SHL EAX, 10H  
004019B8  0BC8  OR ECX, EAX  
004019BA  890D40404000  MOV DWORD PTR DS:[00404040H],ECX  
004019C0  F7D1  NOT ECX  
004019C2  5F  POP EDI  
004019C3  890D80404000  MOV DWORD PTR DS:[00404080H],ECX  
004019C9  5E  POP ESI  
004019CA  C3  RET  ; Proc_00401980 endp ; Return from function
004019CB  33C0  XOR EAX, EAX  ; Zero EAX (return 0 or clear register)
004019CD  C3  RET  ;Pop IP ; Return from function
004019CE  33C0  XOR EAX, EAX  ; Zero EAX (return 0 or clear register)
004019D0  40  INC EAX  
004019D1  C3  RET  ;Pop IP ; Return from function
004019D2  B8 00400000  MOV EAX, 00004000H  
004019D7  C3  RET  ;Pop IP ; Return from function
004019D8  68 B0404000  PUSH 004040B0H  
004019DD  FF1510304000  CALL DWORD PTR DS:[00403010H]  
    ; ====== Proc_004019E3 Proc ======  
004019E3  C3  RET  ; Proc_004019E3 endp ; Return from function
    ; ====== Proc_004019E4 Proc ======  
004019E4  B001  MOV AL, 01H  
004019E6  C3  RET  ; Proc_004019E4 endp ; Return from function
004019E7  68 00000300  PUSH 00030000H  
004019EC  68 00000100  PUSH 00010000H  
004019F1  6A00  PUSH 00H  
004019F3  E8 DF070000  CALL api-ms-win-crt-runtime-l1-1-0!_controlfp_s  
004019F8  83C40C  ADD ESP, 0CH  
004019FB  85C0  TEST EAX, EAX  ; Check if EAX is zero
004019FD  7501  JNZ 00401A00  
004019FF  C3  RET  ;Pop IP ; Return from function
00401A00  6A07  PUSH 07H  
00401A02  E8 45000000  CALL 00401A4C  
00401A07  CC  INT3  
00401A08  C2 0000  RET 0000H  ; Return from function
00401A0B  B8 B8404000  MOV EAX, 004040B8H  
00401A10  C3  RET  ;Pop IP ; Return from function
00401A11  B8 C0404000  MOV EAX, 004040C0H  
00401A16  C3  RET  ;Pop IP ; Return from function
00401A17  E8 EFFFFFFF  CALL 00401A0B  
00401A1C  8B4804  MOV ECX,DWORD PTR DS:[EAX+04H]  
00401A1F  8308 24  OR DWORD PTR DS:[EAX],24H  
00401A22  894804  MOV DWORD PTR DS:[EAX+04H],ECX  
00401A25  E8 E7FFFFFF  CALL 00401A11  
00401A2A  8B4804  MOV ECX,DWORD PTR DS:[EAX+04H]  
00401A2D  8308 02  OR DWORD PTR DS:[EAX],02H  
00401A30  894804  MOV DWORD PTR DS:[EAX+04H],ECX  
00401A33  C3  RET  ;Pop IP ; Return from function
00401A34  33C0  XOR EAX, EAX  ; Zero EAX (return 0 or clear register)
00401A36  390504404000  CMP DWORD PTR DS:[00404004H],EAX  
00401A3C  0F94C0  SETE AL  
00401A3F  C3  RET  ;Pop IP ; Return from function
00401A40  B8 F8434000  MOV EAX, 004043F8H  
00401A45  C3  RET  ;Pop IP ; Return from function
00401A46  B8 F4434000  MOV EAX, 004043F4H  
    ; ====== Proc_00401A4B Proc ======  
00401A4B  C3  RET  ; Proc_00401A4B endp ; Return from function
    ; ====== Proc_00401A4C Proc ======  
00401A4C  55  PUSH EBP  ; Function prologue - save frame pointer
00401A4D  8BEC  MOV EBP, ESP  ; Function prologue - setup frame pointer
00401A4F  81EC 24030000  SUB ESP, 00000324H  ; Allocate stack space for local variables ( 00000324H bytes)
00401A55  56  PUSH ESI  
00401A56  6A17  PUSH 17H  
00401A58  FF1520304000  CALL DWORD PTR DS:[00403020H]  
00401A5E  85C0  TEST EAX, EAX  ; Check if EAX is zero
00401A60  7405  JZ 00401A67  
00401A62  8B4D08  MOV ECX,DWORD PTR SS:[EBP+08H]  ; Function parameter 1 (arg_0)
00401A65  CD 29  INT 29H  
00401A67  6A03  PUSH 03H  
00401A69  E8 9C010000  CALL 00401C0A  
00401A6E  C70424 CC020000  MOV DWORD PTR SS:[ESP],000002CCH  
00401A75  8D85 DCFCFFFF  LEA EAX,DWORD PTR SS:[EBP+FFFFFCDCH]  ; Function parameter at [ebp+FFFFFCDCH]
00401A7B  6A00  PUSH 00H  
00401A7D  50  PUSH EAX  
00401A7E  E8 C4060000  CALL VCRUNTIME140!memset  
00401A83  83C40C  ADD ESP, 0CH  
00401A86  8985 8CFDFFFF  MOV DWORD PTR SS:[EBP+FFFFFD8CH],EAX  ; Function parameter at [ebp+FFFFFD8CH]
00401A8C  898D 88FDFFFF  MOV DWORD PTR SS:[EBP+FFFFFD88H],ECX  ; Function parameter at [ebp+FFFFFD88H]
00401A92  8995 84FDFFFF  MOV DWORD PTR SS:[EBP+FFFFFD84H],EDX  ; Function parameter at [ebp+FFFFFD84H]
00401A98  899D 80FDFFFF  MOV DWORD PTR SS:[EBP+FFFFFD80H],EBX  ; Function parameter at [ebp+FFFFFD80H]
00401A9E  89B5 7CFDFFFF  MOV DWORD PTR SS:[EBP+FFFFFD7CH],ESI  ; Function parameter at [ebp+FFFFFD7CH]
00401AA4  89BD 78FDFFFF  MOV DWORD PTR SS:[EBP+FFFFFD78H],EDI  ; Function parameter at [ebp+FFFFFD78H]
00401AAA  66:8C95 A4FDFFFF  MOV WORD PTR SS:[EBP+FFFFFDA4H],SS  ; Function parameter at [ebp+FFFFFDA4H]
00401AB1  66:8C8D 98FDFFFF  MOV WORD PTR SS:[EBP+FFFFFD98H],CS  ; Function parameter at [ebp+FFFFFD98H]
00401AB8  66:8C9D 74FDFFFF  MOV WORD PTR SS:[EBP+FFFFFD74H],DS  ; Function parameter at [ebp+FFFFFD74H]
00401ABF  66:8C85 70FDFFFF  MOV WORD PTR SS:[EBP+FFFFFD70H],ES  ; Function parameter at [ebp+FFFFFD70H]
00401AC6  66:8CA5 6CFDFFFF  MOV WORD PTR SS:[EBP+FFFFFD6CH],FS  ; Function parameter at [ebp+FFFFFD6CH]
00401ACD  66:8CAD 68FDFFFF  MOV WORD PTR SS:[EBP+FFFFFD68H],GS  ; Function parameter at [ebp+FFFFFD68H]
00401AD4  9C  PUSHFD  
00401AD5  8F85 9CFDFFFF  POP DWORD PTR SS:[EBP+FFFFFD9CH]  ; Function parameter at [ebp+FFFFFD9CH]
00401ADB  8B4504  MOV EAX,DWORD PTR SS:[EBP+04H]  
00401ADE  8985 94FDFFFF  MOV DWORD PTR SS:[EBP+FFFFFD94H],EAX  ; Function parameter at [ebp+FFFFFD94H]
00401AE4  8D4504  LEA EAX,DWORD PTR SS:[EBP+04H]  
00401AE7  8985 A0FDFFFF  MOV DWORD PTR SS:[EBP+FFFFFDA0H],EAX  ; Function parameter at [ebp+FFFFFDA0H]
00401AED  C785 DCFCFFFF 01000100  MOV DWORD PTR SS:[EBP+FFFFFCDCH],00010001H  ; Function parameter at [ebp+FFFFFCDCH]
00401AF7  8B40FC  MOV EAX,DWORD PTR DS:[EAX-04H]  
00401AFA  6A50  PUSH 50H  
00401AFC  8985 90FDFFFF  MOV DWORD PTR SS:[EBP+FFFFFD90H],EAX  ; Function parameter at [ebp+FFFFFD90H]
00401B02  8D45A8  LEA EAX,DWORD PTR SS:[EBP-58H]  ; Local variable at [ebp-58H]
00401B05  6A00  PUSH 00H  
00401B07  50  PUSH EAX  
00401B08  E8 3A060000  CALL VCRUNTIME140!memset  
00401B0D  8B4504  MOV EAX,DWORD PTR SS:[EBP+04H]  
00401B10  83C40C  ADD ESP, 0CH  
00401B13  C745A8 15000040  MOV DWORD PTR SS:[EBP-58H],40000015H  ; Local variable at [ebp-58H]
00401B1A  C745AC 01000000  MOV DWORD PTR SS:[EBP-54H],00000001H  ; Local variable at [ebp-54H]
00401B21  8945B4  MOV DWORD PTR SS:[EBP-4CH],EAX  ; Local variable at [ebp-4CH]
00401B24  FF1514304000  CALL DWORD PTR DS:[00403014H]  
00401B2A  8BF0  MOV ESI, EAX  
00401B2C  8D45A8  LEA EAX,DWORD PTR SS:[EBP-58H]  ; Local variable at [ebp-58H]
00401B2F  8945F8  MOV DWORD PTR SS:[EBP-08H],EAX  ; Local variable at [ebp-08H]
00401B32  8D85 DCFCFFFF  LEA EAX,DWORD PTR SS:[EBP+FFFFFCDCH]  ; Function parameter at [ebp+FFFFFCDCH]
00401B38  6A00  PUSH 00H  
00401B3A  8945FC  MOV DWORD PTR SS:[EBP-04H],EAX  ; Local variable at [ebp-04H]
00401B3D  FF151C304000  CALL DWORD PTR DS:[0040301CH]  
00401B43  8D45F8  LEA EAX,DWORD PTR SS:[EBP-08H]  ; Local variable at [ebp-08H]
00401B46  50  PUSH EAX  
00401B47  FF1518304000  CALL DWORD PTR DS:[00403018H]  
00401B4D  85C0  TEST EAX, EAX  ; Check if EAX is zero
00401B4F  750D  JNZ 00401B5E  
00401B51  83FE01  CMP ESI, 01H  ; Compare with zero (null check)
00401B54  7408  JZ 00401B5E  
00401B56  6A03  PUSH 03H  
00401B58  E8 AD000000  CALL 00401C0A  
00401B5D  59  POP ECX  
00401B5E  5E  POP ESI  
00401B5F  C9  LEAVE  ;Releases the local variables ; Function epilogue - restore stack frame
00401B60  C3  RET  ; Proc_00401A4C endp ; Return from function
00401B61  E9 65FEFFFF  JMP 004019CB  
00401B66  6A00  PUSH 00H  
00401B68  FF1524304000  CALL DWORD PTR DS:[00403024H]  
00401B6E  85C0  TEST EAX, EAX  ; Check if EAX is zero
00401B70  7433  JZ 00401BA5  
00401B72  B9 4D5A0000  MOV ECX, 00005A4DH  
00401B77  66:3908  CMP WORD PTR DS:[EAX],CX  
00401B7A  7529  JNZ 00401BA5  
00401B7C  8B483C  MOV ECX,DWORD PTR DS:[EAX+3CH]  
00401B7F  03C8  ADD ECX, EAX  
00401B81  8139 50450000  CMP DWORD PTR DS:[ECX], 00004550H  ; Compare with zero (null check)
00401B87  751C  JNZ 00401BA5  
00401B89  B8 0B010000  MOV EAX, 0000010BH  
00401B8E  66:394118  CMP WORD PTR DS:[ECX+18H],AX  
00401B92  7511  JNZ 00401BA5  
00401B94  8379740E  CMP DWORD PTR DS:[ECX+74H],0EH  ; Compare with zero (null check)
00401B98  760B  JBE 00401BA5  
00401B9A  83B9 E800000000  CMP DWORD PTR DS:[ECX+000000E8H],00H  ; Compare with zero (null check)
00401BA1  0F95C0  SETNE AL  
00401BA4  C3  RET  ;Pop IP ; Return from function
00401BA5  32C0  XOR AL, AL  
00401BA7  C3  RET  ;Pop IP ; Return from function
00401BA8  68 B41B4000  PUSH 00401BB4H  
00401BAD  FF151C304000  CALL DWORD PTR DS:[0040301CH]  
00401BB3  C3  RET  ;Pop IP ; Return from function
00401BB4  55  PUSH EBP  ; Function prologue - save frame pointer
00401BB5  8BEC  MOV EBP, ESP  ; Function prologue - setup frame pointer
00401BB7  56  PUSH ESI  
00401BB8  57  PUSH EDI  
00401BB9  8B7D08  MOV EDI,DWORD PTR SS:[EBP+08H]  ; Function parameter 1 (arg_0)
00401BBC  8B37  MOV ESI,DWORD PTR DS:[EDI]  
00401BBE  813E 63736DE0  CMP DWORD PTR DS:[ESI], E06D7363H  
00401BC4  7525  JNZ 00401BEB  
00401BC6  837E1003  CMP DWORD PTR DS:[ESI+10H],03H  ; Compare with zero (null check)
00401BCA  751F  JNZ 00401BEB  
00401BCC  8B4614  MOV EAX,DWORD PTR DS:[ESI+14H]  
00401BCF  3D 20059319  CMP EAX, 19930520H  
00401BD4  741D  JZ 00401BF3  
00401BD6  3D 21059319  CMP EAX, 19930521H  
00401BDB  7416  JZ 00401BF3  
00401BDD  3D 22059319  CMP EAX, 19930522H  
00401BE2  740F  JZ 00401BF3  
00401BE4  3D 00409901  CMP EAX, 01994000H  ; Compare with zero (null check)
00401BE9  7408  JZ 00401BF3  
00401BEB  5F  POP EDI  
00401BEC  33C0  XOR EAX, EAX  ; Zero EAX (return 0 or clear register)
00401BEE  5E  POP ESI  
00401BEF  5D  POP EBP  ; Function epilogue - restore frame pointer
00401BF0  C2 0400  RET 0004H  ; Return from function
00401BF3  E8 43050000  CALL VCRUNTIME140!__current_exception  
00401BF8  8930  MOV DWORD PTR DS:[EAX],ESI  
00401BFA  8B7704  MOV ESI,DWORD PTR DS:[EDI+04H]  
00401BFD  E8 3F050000  CALL VCRUNTIME140!__current_exception_context  
00401C02  8930  MOV DWORD PTR DS:[EAX],ESI  
00401C04  E8 D4050000  CALL api-ms-win-crt-runtime-l1-1-0!terminate  
00401C09  CC  INT3  
    ; ====== Proc_00401C0A Proc ======  
00401C0A  C705C8404000 00000000  MOV DWORD PTR DS:[004040C8H],00000000H  
00401C14  C3  RET  ; Proc_00401C0A endp ; Return from function
00401C15  53  PUSH EBX  
00401C16  56  PUSH ESI  
00401C17  BE B8344000  MOV ESI, 004034B8H  
00401C1C  BB B8344000  MOV EBX, 004034B8H  
00401C21  3BF3  CMP ESI, EBX  
00401C23  7319  JNB 00401C3E  
00401C25  57  PUSH EDI  
00401C26  8B3E  MOV EDI,DWORD PTR DS:[ESI]  
00401C28  85FF  TEST EDI, EDI  
00401C2A  740A  JZ 00401C36  
00401C2C  8BCF  MOV ECX, EDI  
00401C2E  FF15BC304000  CALL DWORD PTR DS:[004030BCH]  
00401C34  FFD7  CALL EDI  
00401C36  83C604  ADD ESI, 04H  
00401C39  3BF3  CMP ESI, EBX  
00401C3B  72E9  JB 00401C26  
00401C3D  5F  POP EDI  
00401C3E  5E  POP ESI  
00401C3F  5B  POP EBX  
00401C40  C3  RET  ;Pop IP ; Return from function
00401C41  53  PUSH EBX  
00401C42  56  PUSH ESI  
00401C43  BE C0344000  MOV ESI, 004034C0H  
00401C48  BB C0344000  MOV EBX, 004034C0H  
00401C4D  3BF3  CMP ESI, EBX  
00401C4F  7319  JNB 00401C6A  
00401C51  57  PUSH EDI  
00401C52  8B3E  MOV EDI,DWORD PTR DS:[ESI]  
00401C54  85FF  TEST EDI, EDI  
00401C56  740A  JZ 00401C62  
00401C58  8BCF  MOV ECX, EDI  
00401C5A  FF15BC304000  CALL DWORD PTR DS:[004030BCH]  
00401C60  FFD7  CALL EDI  
00401C62  83C604  ADD ESI, 04H  
00401C65  3BF3  CMP ESI, EBX  
00401C67  72E9  JB 00401C52  
00401C69  5F  POP EDI  
00401C6A  5E  POP ESI  
00401C6B  5B  POP EBX  
00401C6C  C3  RET  ;Pop IP ; Return from function
00401C6D  CC  INT3  
00401C6E  CC  INT3  
    ; ====== Proc_00401C6F Proc ======  
00401C6F  CC  INT3  
    ; ====== Proc_00401C70 Proc ======  
00401C70  68 B51C4000  PUSH 00401CB5H  
00401C75  64:FF3500000000  PUSH DWORD PTR FS:[00000000H]  
00401C7C  8B442410  MOV EAX,DWORD PTR SS:[ESP+10H]  
00401C80  896C2410  MOV DWORD PTR SS:[ESP+10H],EBP  
00401C84  8D6C2410  LEA EBP,DWORD PTR SS:[ESP+10H]  
00401C88  2BE0  SUB ESP, EAX  ; Allocate stack space for local variables ( EAX bytes)
00401C8A  53  PUSH EBX  
00401C8B  56  PUSH ESI  
00401C8C  57  PUSH EDI  
00401C8D  A1 40404000  MOV EAX, DWORD PTR DS:[00404040H]  
00401C92  3145FC  XOR DWORD PTR SS:[EBP-04H],EAX  ; Local variable at [ebp-04H]
00401C95  33C5  XOR EAX, EBP  
00401C97  50  PUSH EAX  
00401C98  8965E8  MOV DWORD PTR SS:[EBP-18H],ESP  ; Local variable at [ebp-18H]
00401C9B  FF75F8  PUSH DWORD PTR SS:[EBP-08H]  ; Local variable at [ebp-08H]
00401C9E  8B45FC  MOV EAX,DWORD PTR SS:[EBP-04H]  ; Local variable at [ebp-04H]
00401CA1  C745FC FEFFFFFF  MOV DWORD PTR SS:[EBP-04H],FFFFFFFEH  ; Local variable at [ebp-04H]
00401CA8  8945F8  MOV DWORD PTR SS:[EBP-08H],EAX  ; Local variable at [ebp-08H]
00401CAB  8D45F0  LEA EAX,DWORD PTR SS:[EBP-10H]  ; Local variable at [ebp-10H]
00401CAE  64:A3 00000000  MOV DWORD PTR FS:[00000000H], EAX  
00401CB4  C3  RET  ; Proc_00401C70 endp ; Return from function
00401CB5  55  PUSH EBP  ; Function prologue - save frame pointer
00401CB6  8BEC  MOV EBP, ESP  ; Function prologue - setup frame pointer
00401CB8  56  PUSH ESI  
00401CB9  8B7508  MOV ESI,DWORD PTR SS:[EBP+08H]  ; Function parameter 1 (arg_0)
00401CBC  FF36  PUSH DWORD PTR DS:[ESI]  
00401CBE  E8 20050000  CALL 004021E3  
00401CC3  FF7514  PUSH DWORD PTR SS:[EBP+14H]  ; Function parameter at [ebp+14H]
00401CC6  8906  MOV DWORD PTR DS:[ESI],EAX  
00401CC8  FF7510  PUSH DWORD PTR SS:[EBP+10H]  ; Function parameter 3 (arg_8)
00401CCB  FF750C  PUSH DWORD PTR SS:[EBP+0CH]  ; Function parameter 2 (arg_4)
00401CCE  56  PUSH ESI  
00401CCF  68 0A204000  PUSH 0040200AH  ;ASCIIZ: ";@@@",0
00401CD4  68 40404000  PUSH 00404040H  
00401CD9  E8 6F040000  CALL VCRUNTIME140!_except_handler4_common  
00401CDE  83C41C  ADD ESP, 1CH  
00401CE1  5E  POP ESI  
00401CE2  5D  POP EBP  ; Function epilogue - restore frame pointer
00401CE3  C3  RET  ;Pop IP ; Return from function
    ; ====== Proc_00401CE4 Proc ======  
00401CE4  55  PUSH EBP  ; Function prologue - save frame pointer
00401CE5  8BEC  MOV EBP, ESP  ; Function prologue - setup frame pointer
00401CE7  830D18404000 01  OR DWORD PTR DS:[00404018H],01H  
00401CEE  83EC28  SUB ESP, 28H  ; Allocate stack space for local variables ( 28H bytes)
00401CF1  C705D0404000 00000000  MOV DWORD PTR DS:[004040D0H],00000000H  
00401CFB  6A0A  PUSH 0AH  
00401CFD  FF1520304000  CALL DWORD PTR DS:[00403020H]  
00401D03  85C0  TEST EAX, EAX  ; Check if EAX is zero
00401D05  0F84 EF020000  JZ 00401FFA  
00401D0B  53  PUSH EBX  
00401D0C  56  PUSH ESI  
00401D0D  57  PUSH EDI  
00401D0E  33C0  XOR EAX, EAX  ; Zero EAX (return 0 or clear register)
00401D10  8D7DD8  LEA EDI,DWORD PTR SS:[EBP-28H]  ; Local variable at [ebp-28H]
00401D13  33C9  XOR ECX, ECX  
00401D15  53  PUSH EBX  
00401D16  0FA2  CPUID  
00401D18  8BF3  MOV ESI, EBX  
00401D1A  5B  POP EBX  
00401D1B  90  NOP  
00401D1C  8907  MOV DWORD PTR DS:[EDI],EAX  
00401D1E  897704  MOV DWORD PTR DS:[EDI+04H],ESI  
00401D21  894F08  MOV DWORD PTR DS:[EDI+08H],ECX  
00401D24  89570C  MOV DWORD PTR DS:[EDI+0CH],EDX  
00401D27  8B45D8  MOV EAX,DWORD PTR SS:[EBP-28H]  ; Local variable at [ebp-28H]
00401D2A  8B4DE4  MOV ECX,DWORD PTR SS:[EBP-1CH]  ; Local variable at [ebp-1CH]
00401D2D  8945FC  MOV DWORD PTR SS:[EBP-04H],EAX  ; Local variable at [ebp-04H]
00401D30  81F1 696E6549  XOR ECX, 49656E69H  
00401D36  8B45E0  MOV EAX,DWORD PTR SS:[EBP-20H]  ; Local variable at [ebp-20H]
00401D39  35 6E74656C  XOR EAX, 6C65746EH  
00401D3E  0BC8  OR ECX, EAX  
00401D40  8B45DC  MOV EAX,DWORD PTR SS:[EBP-24H]  ; Local variable at [ebp-24H]
00401D43  6A01  PUSH 01H  
00401D45  35 47656E75  XOR EAX, 756E6547H  
00401D4A  0BC8  OR ECX, EAX  
00401D4C  58  POP EAX  
00401D4D  6A00  PUSH 00H  
00401D4F  59  POP ECX  
00401D50  53  PUSH EBX  
00401D51  0FA2  CPUID  
00401D53  8BF3  MOV ESI, EBX  
00401D55  5B  POP EBX  
00401D56  90  NOP  
00401D57  8907  MOV DWORD PTR DS:[EDI],EAX  
00401D59  897704  MOV DWORD PTR DS:[EDI+04H],ESI  
00401D5C  894F08  MOV DWORD PTR DS:[EDI+08H],ECX  
00401D5F  89570C  MOV DWORD PTR DS:[EDI+0CH],EDX  
00401D62  7539  JNZ 00401D9D  
00401D64  8B45D8  MOV EAX,DWORD PTR SS:[EBP-28H]  ; Local variable at [ebp-28H]
00401D67  25 F03FFF0F  AND EAX, 0FFF3FF0H  
00401D6C  3D C0060100  CMP EAX, 000106C0H  ; Compare with zero (null check)
00401D71  7423  JZ 00401D96  
00401D73  3D 60060200  CMP EAX, 00020660H  ; Compare with zero (null check)
00401D78  741C  JZ 00401D96  
00401D7A  3D 70060200  CMP EAX, 00020670H  ; Compare with zero (null check)
00401D7F  7415  JZ 00401D96  
00401D81  3D 50060300  CMP EAX, 00030650H  ; Compare with zero (null check)
00401D86  740E  JZ 00401D96  
00401D88  3D 60060300  CMP EAX, 00030660H  ; Compare with zero (null check)
00401D8D  7407  JZ 00401D96  
00401D8F  3D 70060300  CMP EAX, 00030670H  ; Compare with zero (null check)
00401D94  7507  JNZ 00401D9D  
00401D96  830DD4404000 01  OR DWORD PTR DS:[004040D4H],01H  
00401D9D  8B55E0  MOV EDX,DWORD PTR SS:[EBP-20H]  ; Local variable at [ebp-20H]
00401DA0  33DB  XOR EBX, EBX  
00401DA2  33FF  XOR EDI, EDI  
00401DA4  8955F4  MOV DWORD PTR SS:[EBP-0CH],EDX  ; Local variable at [ebp-0CH]
00401DA7  837DFC07  CMP DWORD PTR SS:[EBP-04H],07H  ; Local variable at [ebp-04H]
00401DAB  895DEC  MOV DWORD PTR SS:[EBP-14H],EBX  ; Local variable at [ebp-14H]
00401DAE  895DE8  MOV DWORD PTR SS:[EBP-18H],EBX  ; Local variable at [ebp-18H]
00401DB1  0F8C 87000000  JL 00401E3E  
00401DB7  6A07  PUSH 07H  
00401DB9  58  POP EAX  
00401DBA  33C9  XOR ECX, ECX  
00401DBC  53  PUSH EBX  
00401DBD  0FA2  CPUID  
00401DBF  8BF3  MOV ESI, EBX  
00401DC1  5B  POP EBX  
00401DC2  90  NOP  
00401DC3  8D5DD8  LEA EBX,DWORD PTR SS:[EBP-28H]  ; Local variable at [ebp-28H]
00401DC6  8903  MOV DWORD PTR DS:[EBX],EAX  
00401DC8  897304  MOV DWORD PTR DS:[EBX+04H],ESI  
00401DCB  894B08  MOV DWORD PTR DS:[EBX+08H],ECX  
00401DCE  89530C  MOV DWORD PTR DS:[EBX+0CH],EDX  
00401DD1  8B5DDC  MOV EBX,DWORD PTR SS:[EBP-24H]  ; Local variable at [ebp-24H]
00401DD4  8B45E4  MOV EAX,DWORD PTR SS:[EBP-1CH]  ; Local variable at [ebp-1CH]
00401DD7  895DF8  MOV DWORD PTR SS:[EBP-08H],EBX  ; Local variable at [ebp-08H]
00401DDA  8945EC  MOV DWORD PTR SS:[EBP-14H],EAX  ; Local variable at [ebp-14H]
00401DDD  F7C3 00020000  TEST EBX,00000200H  
00401DE3  7407  JZ 00401DEC  
00401DE5  830DD4404000 02  OR DWORD PTR DS:[004040D4H],02H  
00401DEC  837DD801  CMP DWORD PTR SS:[EBP-28H],01H  ; Local variable at [ebp-28H]
00401DF0  7C24  JL 00401E16  
00401DF2  6A07  PUSH 07H  
00401DF4  58  POP EAX  
00401DF5  33C9  XOR ECX, ECX  
00401DF7  41  INC ECX  
00401DF8  53  PUSH EBX  
00401DF9  0FA2  CPUID  
00401DFB  8BF3  MOV ESI, EBX  
00401DFD  5B  POP EBX  
00401DFE  90  NOP  
00401DFF  8D5DD8  LEA EBX,DWORD PTR SS:[EBP-28H]  ; Local variable at [ebp-28H]
00401E02  8903  MOV DWORD PTR DS:[EBX],EAX  
00401E04  897304  MOV DWORD PTR DS:[EBX+04H],ESI  
00401E07  894B08  MOV DWORD PTR DS:[EBX+08H],ECX  
00401E0A  89530C  MOV DWORD PTR DS:[EBX+0CH],EDX  
00401E0D  8B45E4  MOV EAX,DWORD PTR SS:[EBP-1CH]  ; Local variable at [ebp-1CH]
00401E10  8B5DF8  MOV EBX,DWORD PTR SS:[EBP-08H]  ; Local variable at [ebp-08H]
00401E13  8945E8  MOV DWORD PTR SS:[EBP-18H],EAX  ; Local variable at [ebp-18H]
00401E16  6A24  PUSH 24H  
00401E18  58  POP EAX  
00401E19  3945FC  CMP DWORD PTR SS:[EBP-04H],EAX  ; Local variable at [ebp-04H]
00401E1C  7C1D  JL 00401E3B  
00401E1E  33C9  XOR ECX, ECX  
00401E20  8D7DD8  LEA EDI,DWORD PTR SS:[EBP-28H]  ; Local variable at [ebp-28H]
00401E23  53  PUSH EBX  
00401E24  0FA2  CPUID  
00401E26  8BF3  MOV ESI, EBX  
00401E28  5B  POP EBX  
00401E29  90  NOP  
00401E2A  8B5DF8  MOV EBX,DWORD PTR SS:[EBP-08H]  ; Local variable at [ebp-08H]
00401E2D  8907  MOV DWORD PTR DS:[EDI],EAX  
00401E2F  897704  MOV DWORD PTR DS:[EDI+04H],ESI  
00401E32  894F08  MOV DWORD PTR DS:[EDI+08H],ECX  
00401E35  89570C  MOV DWORD PTR DS:[EDI+0CH],EDX  
00401E38  8B7DDC  MOV EDI,DWORD PTR SS:[EBP-24H]  ; Local variable at [ebp-24H]
00401E3B  8B55F4  MOV EDX,DWORD PTR SS:[EBP-0CH]  ; Local variable at [ebp-0CH]
00401E3E  A1 18404000  MOV EAX, DWORD PTR DS:[00404018H]  
00401E43  8B0D10404000  MOV ECX,DWORD PTR DS:[00404010H]  
00401E49  83C802  OR EAX, 02H  
00401E4C  8B3514404000  MOV ESI,DWORD PTR DS:[00404014H]  
00401E52  83E1FE  AND ECX, -02H  
00401E55  C705D0404000 01000000  MOV DWORD PTR DS:[004040D0H],00000001H  
00401E5F  A3 18404000  MOV DWORD PTR DS:[00404018H], EAX  
00401E64  890D10404000  MOV DWORD PTR DS:[00404010H],ECX  
00401E6A  893514404000  MOV DWORD PTR DS:[00404014H],ESI  
00401E70  F7C2 00001000  TEST EDX,00100000H  
00401E76  0F84 7B010000  JZ 00401FF7  
00401E7C  83C804  OR EAX, 04H  
00401E7F  C705D0404000 02000000  MOV DWORD PTR DS:[004040D0H],00000002H  
00401E89  A3 18404000  MOV DWORD PTR DS:[00404018H], EAX  
00401E8E  83E1EF  AND ECX, -11H  
00401E91  B8 00000018  MOV EAX, 18000000H  
00401E96  890D10404000  MOV DWORD PTR DS:[00404010H],ECX  
00401E9C  23D0  AND EDX, EAX  
00401E9E  893514404000  MOV DWORD PTR DS:[00404014H],ESI  
00401EA4  3BD0  CMP EDX, EAX  
00401EA6  0F85 4B010000  JNZ 00401FF7  
00401EAC  33C9  XOR ECX, ECX  
00401EAE  0F01D0  XGETBV  
00401EB1  8945F0  MOV DWORD PTR SS:[EBP-10H],EAX  ; Local variable at [ebp-10H]
00401EB4  33F6  XOR ESI, ESI  
00401EB6  8955F4  MOV DWORD PTR SS:[EBP-0CH],EDX  ; Local variable at [ebp-0CH]
00401EB9  8B45F0  MOV EAX,DWORD PTR SS:[EBP-10H]  ; Local variable at [ebp-10H]
00401EBC  8B4DF4  MOV ECX,DWORD PTR SS:[EBP-0CH]  ; Local variable at [ebp-0CH]
00401EBF  83E006  AND EAX, 06H  
00401EC2  23CE  AND ECX, ESI  
00401EC4  83F806  CMP EAX, 06H  ; Compare with zero (null check)
00401EC7  0F85 2A010000  JNZ 00401FF7  
00401ECD  3BCE  CMP ECX, ESI  
00401ECF  0F85 22010000  JNZ 00401FF7  
00401ED5  A1 18404000  MOV EAX, DWORD PTR DS:[00404018H]  
00401EDA  83C808  OR EAX, 08H  
00401EDD  C705D0404000 03000000  MOV DWORD PTR DS:[004040D0H],00000003H  
00401EE7  A3 18404000  MOV DWORD PTR DS:[00404018H], EAX  
00401EEC  F6C320  TEST BL,20H  
00401EEF  7479  JZ 00401F6A  
00401EF1  8B0D14404000  MOV ECX,DWORD PTR DS:[00404014H]  
00401EF7  83C820  OR EAX, 20H  
00401EFA  A3 18404000  MOV DWORD PTR DS:[00404018H], EAX  
00401EFF  BA 000003D0  MOV EDX, D0030000H  
00401F04  A1 10404000  MOV EAX, DWORD PTR DS:[00404010H]  
00401F09  23DA  AND EBX, EDX  
00401F0B  83E0FD  AND EAX, -03H  
00401F0E  C705D0404000 05000000  MOV DWORD PTR DS:[004040D0H],00000005H  
00401F18  A3 10404000  MOV DWORD PTR DS:[00404010H], EAX  
00401F1D  890D14404000  MOV DWORD PTR DS:[00404014H],ECX  
00401F23  3BDA  CMP EBX, EDX  
00401F25  754E  JNZ 00401F75  
00401F27  8B45F0  MOV EAX,DWORD PTR SS:[EBP-10H]  ; Local variable at [ebp-10H]
00401F2A  BA E0000000  MOV EDX, 000000E0H  
00401F2F  8B4DF4  MOV ECX,DWORD PTR SS:[EBP-0CH]  ; Local variable at [ebp-0CH]
00401F32  23C2  AND EAX, EDX  
00401F34  23CE  AND ECX, ESI  
00401F36  3BC2  CMP EAX, EDX  
00401F38  7530  JNZ 00401F6A  
00401F3A  3BCE  CMP ECX, ESI  
00401F3C  752C  JNZ 00401F6A  
00401F3E  A1 10404000  MOV EAX, DWORD PTR DS:[00404010H]  
00401F43  830D18404000 40  OR DWORD PTR DS:[00404018H],40H  
00401F4A  83E0DB  AND EAX, -25H  
00401F4D  8B0D14404000  MOV ECX,DWORD PTR DS:[00404014H]  
00401F53  C705D0404000 06000000  MOV DWORD PTR DS:[004040D0H],00000006H  
00401F5D  A3 10404000  MOV DWORD PTR DS:[00404010H], EAX  
00401F62  890D14404000  MOV DWORD PTR DS:[00404014H],ECX  
00401F68  EB0B  JMP 00401F75  
00401F6A  8B0D14404000  MOV ECX,DWORD PTR DS:[00404014H]  
00401F70  A1 10404000  MOV EAX, DWORD PTR DS:[00404010H]  
00401F75  F745EC 00008000  TEST DWORD PTR SS:[EBP-14H],00800000H  ; Local variable at [ebp-14H]
00401F7C  7410  JZ 00401F8E  
00401F7E  25 FFFFFFFE  AND EAX, FEFFFFFFH  
00401F83  890D14404000  MOV DWORD PTR DS:[00404014H],ECX  
00401F89  A3 10404000  MOV DWORD PTR DS:[00404010H], EAX  
00401F8E  F745E8 00000800  TEST DWORD PTR SS:[EBP-18H],00080000H  ; Local variable at [ebp-18H]
00401F95  7460  JZ 00401FF7  
00401F97  8B45F0  MOV EAX,DWORD PTR SS:[EBP-10H]  ; Local variable at [ebp-10H]
00401F9A  BA E0000000  MOV EDX, 000000E0H  
00401F9F  8B4DF4  MOV ECX,DWORD PTR SS:[EBP-0CH]  ; Local variable at [ebp-0CH]
00401FA2  23C2  AND EAX, EDX  
00401FA4  23CE  AND ECX, ESI  
00401FA6  3BC2  CMP EAX, EDX  
00401FA8  754D  JNZ 00401FF7  
00401FAA  3BCE  CMP ECX, ESI  
00401FAC  7549  JNZ 00401FF7  
00401FAE  8BC7  MOV EAX, EDI  
00401FB0  33C9  XOR ECX, ECX  
00401FB2  C1EF10  SHR EDI, 10H  
00401FB5  25 FF000400  AND EAX, 000400FFH  
00401FBA  83E706  AND EDI, 06H  
00401FBD  A3 CC404000  MOV DWORD PTR DS:[004040CCH], EAX  
00401FC2  81CF 29000001  OR EDI, 01000029H  
00401FC8  F7D1  NOT ECX  
00401FCA  230D14404000  AND ECX,DWORD PTR DS:[00404014H]  
00401FD0  F7D7  NOT EDI  
00401FD2  233D10404000  AND EDI,DWORD PTR DS:[00404010H]  
00401FD8  893D10404000  MOV DWORD PTR DS:[00404010H],EDI  
00401FDE  890D14404000  MOV DWORD PTR DS:[00404014H],ECX  
00401FE4  3C01  CMP AL, 01H  ; Compare with zero (null check)
00401FE6  760F  JBE 00401FF7  
00401FE8  83E7BF  AND EDI, -41H  
00401FEB  890D14404000  MOV DWORD PTR DS:[00404014H],ECX  
00401FF1  893D10404000  MOV DWORD PTR DS:[00404010H],EDI  
00401FF7  5F  POP EDI  
00401FF8  5E  POP ESI  
00401FF9  5B  POP EBX  
00401FFA  33C0  XOR EAX, EAX  ; Zero EAX (return 0 or clear register)
00401FFC  C9  LEAVE  ;Releases the local variables ; Function epilogue - restore stack frame
    ; ====== Proc_00401FFD Proc ======  
00401FFD  C3  RET  ; Proc_00401CE4 endp ; Return from function
    ; ====== Proc_00401FFE Proc ======  
00401FFE  33C0  XOR EAX, EAX  ; Zero EAX (return 0 or clear register)
00402000  390584404000  CMP DWORD PTR DS:[00404084H],EAX  
00402006  0F95C0  SETNE AL  
00402009  C3  RET  ; Proc_00401FFE endp ; Return from function
0040200A  3B0D40404000  CMP ECX,DWORD PTR DS:[00404040H]  
00402010  7501  JNZ 00402013  
00402012  C3  RET  ;Pop IP ; Return from function
00402013  E9 28000000  JMP 00402040  
    ; ====== Proc_00402018 Proc ======  
00402018  55  PUSH EBP  ; Function prologue - save frame pointer
00402019  8BEC  MOV EBP, ESP  ; Function prologue - setup frame pointer
0040201B  6A00  PUSH 00H  
0040201D  FF151C304000  CALL DWORD PTR DS:[0040301CH]  
00402023  FF7508  PUSH DWORD PTR SS:[EBP+08H]  ; Function parameter 1 (arg_0)
00402026  FF1518304000  CALL DWORD PTR DS:[00403018H]  
0040202C  68 090400C0  PUSH C0000409H  
00402031  FF1528304000  CALL DWORD PTR DS:[00403028H]  
00402037  50  PUSH EAX  
00402038  FF152C304000  CALL DWORD PTR DS:[0040302CH]  
0040203E  5D  POP EBP  ; Function epilogue - restore frame pointer
0040203F  C3  RET  ; Proc_00402018 endp ; Return from function
00402040  55  PUSH EBP  ; Function prologue - save frame pointer
00402041  8BEC  MOV EBP, ESP  ; Function prologue - setup frame pointer
00402043  81EC 24030000  SUB ESP, 00000324H  ; Allocate stack space for local variables ( 00000324H bytes)
00402049  6A17  PUSH 17H  
0040204B  FF1520304000  CALL DWORD PTR DS:[00403020H]  
00402051  85C0  TEST EAX, EAX  ; Check if EAX is zero
00402053  7405  JZ 0040205A  
00402055  6A02  PUSH 02H  
00402057  59  POP ECX  
00402058  CD 29  INT 29H  
0040205A  A3 D8414000  MOV DWORD PTR DS:[004041D8H], EAX  
0040205F  890DD4414000  MOV DWORD PTR DS:[004041D4H],ECX  
00402065  8915D0414000  MOV DWORD PTR DS:[004041D0H],EDX  
0040206B  891DCC414000  MOV DWORD PTR DS:[004041CCH],EBX  
00402071  8935C8414000  MOV DWORD PTR DS:[004041C8H],ESI  
00402077  893DC4414000  MOV DWORD PTR DS:[004041C4H],EDI  
0040207D  66:8C15F0414000  MOV WORD PTR DS:[004041F0H],SS  
00402084  66:8C0DE4414000  MOV WORD PTR DS:[004041E4H],CS  
0040208B  66:8C1DC0414000  MOV WORD PTR DS:[004041C0H],DS  
00402092  66:8C05BC414000  MOV WORD PTR DS:[004041BCH],ES  
00402099  66:8C25B8414000  MOV WORD PTR DS:[004041B8H],FS  
004020A0  66:8C2DB4414000  MOV WORD PTR DS:[004041B4H],GS  
004020A7  9C  PUSHFD  
004020A8  8F05E8414000  POP DWORD PTR DS:[004041E8H]  
004020AE  8B4500  MOV EAX,DWORD PTR SS:[EBP+00H]  
004020B1  A3 DC414000  MOV DWORD PTR DS:[004041DCH], EAX  
004020B6  8B4504  MOV EAX,DWORD PTR SS:[EBP+04H]  
004020B9  A3 E0414000  MOV DWORD PTR DS:[004041E0H], EAX  
004020BE  8D4508  LEA EAX,DWORD PTR SS:[EBP+08H]  ; Function parameter 1 (arg_0)
004020C1  A3 EC414000  MOV DWORD PTR DS:[004041ECH], EAX  
004020C6  8B85 DCFCFFFF  MOV EAX,DWORD PTR SS:[EBP+FFFFFCDCH]  ; Function parameter at [ebp+FFFFFCDCH]
004020CC  C70528414000 01000100  MOV DWORD PTR DS:[00404128H],00010001H  
004020D6  A1 E0414000  MOV EAX, DWORD PTR DS:[004041E0H]  
004020DB  A3 E4404000  MOV DWORD PTR DS:[004040E4H], EAX  
004020E0  C705D8404000 090400C0  MOV DWORD PTR DS:[004040D8H],C0000409H  
004020EA  C705DC404000 01000000  MOV DWORD PTR DS:[004040DCH],00000001H  
004020F4  C705E8404000 01000000  MOV DWORD PTR DS:[004040E8H],00000001H  
004020FE  6A04  PUSH 04H  
00402100  58  POP EAX  
00402101  6BC000  IMUL EAX,EAX,00H  
00402104  C780 EC404000 02000000  MOV DWORD PTR DS:[EAX+004040ECH],00000002H  
0040210E  6A04  PUSH 04H  
00402110  58  POP EAX  
00402111  6BC000  IMUL EAX,EAX,00H  
00402114  8B0D40404000  MOV ECX,DWORD PTR DS:[00404040H]  
0040211A  894C05F8  MOV DWORD PTR DS:[EAX+EBP-08H],ECX  
0040211E  6A04  PUSH 04H  
00402120  58  POP EAX  
00402121  C1E000  SHL EAX, 00H  
00402124  8B0D80404000  MOV ECX,DWORD PTR DS:[00404080H]  
0040212A  894C05F8  MOV DWORD PTR DS:[EAX+EBP-08H],ECX  
0040212E  68 F0304000  PUSH 004030F0H  
00402133  E8 E0FEFFFF  CALL 00402018  
    ; ====== Proc_00402138 Proc ======  
00402138  90  NOP  
00402139  C9  LEAVE  ;Releases the local variables ; Function epilogue - restore stack frame
0040213A  C3  RET  ; Proc_00402138 endp ; Return from function
0040213B  FF2534304000  JMP DWORD PTR DS:[00403034H]  
00402141  FF2538304000  JMP DWORD PTR DS:[00403038H]  
00402147  FF253C304000  JMP DWORD PTR DS:[0040303CH]  
0040214D  FF2540304000  JMP DWORD PTR DS:[00403040H]  
00402153  FF258C304000  JMP DWORD PTR DS:[0040308CH]  
00402159  FF2560304000  JMP DWORD PTR DS:[00403060H]  
0040215F  FF2558304000  JMP DWORD PTR DS:[00403058H]  
00402165  FF2588304000  JMP DWORD PTR DS:[00403088H]  
0040216B  FF2570304000  JMP DWORD PTR DS:[00403070H]  
00402171  FF2590304000  JMP DWORD PTR DS:[00403090H]  
00402177  FF25A8304000  JMP DWORD PTR DS:[004030A8H]  
0040217D  FF2564304000  JMP DWORD PTR DS:[00403064H]  
00402183  FF2568304000  JMP DWORD PTR DS:[00403068H]  
00402189  FF256C304000  JMP DWORD PTR DS:[0040306CH]  
0040218F  FF25B0304000  JMP DWORD PTR DS:[004030B0H]  
00402195  FF2574304000  JMP DWORD PTR DS:[00403074H]  
0040219B  FF2578304000  JMP DWORD PTR DS:[00403078H]  
004021A1  FF257C304000  JMP DWORD PTR DS:[0040307CH]  
004021A7  FF2580304000  JMP DWORD PTR DS:[00403080H]  
004021AD  FF2584304000  JMP DWORD PTR DS:[00403084H]  
004021B3  FF2550304000  JMP DWORD PTR DS:[00403050H]  
004021B9  FF2548304000  JMP DWORD PTR DS:[00403048H]  
004021BF  FF25B4304000  JMP DWORD PTR DS:[004030B4H]  
004021C5  FF2594304000  JMP DWORD PTR DS:[00403094H]  
004021CB  FF2598304000  JMP DWORD PTR DS:[00403098H]  
004021D1  FF259C304000  JMP DWORD PTR DS:[0040309CH]  
004021D7  FF25A0304000  JMP DWORD PTR DS:[004030A0H]  
004021DD  FF25A4304000  JMP DWORD PTR DS:[004030A4H]  
004021E3  55  PUSH EBP  ; Function prologue - save frame pointer
004021E4  8BEC  MOV EBP, ESP  ; Function prologue - setup frame pointer
004021E6  51  PUSH ECX  
004021E7  833DD0404000 01  CMP DWORD PTR DS:[004040D0H],01H  ; Compare with zero (null check)
004021EE  8B4D08  MOV ECX,DWORD PTR SS:[EBP+08H]  ; Function parameter 1 (arg_0)
004021F1  7C5C  JL 0040224F  
004021F3  81F9 B40200C0  CMP ECX, 0C00002B4H  ; Compare with zero (null check)
004021F9  7408  JZ 00402203  
004021FB  81F9 B50200C0  CMP ECX, 0C00002B5H  ; Compare with zero (null check)
00402201  754C  JNZ 0040224F  
00402203  0FAE5DFC  STMXCSR DWORD PTR SS:[EBP-04H]  ; Local variable at [ebp-04H]
00402207  8B45FC  MOV EAX,DWORD PTR SS:[EBP-04H]  ; Local variable at [ebp-04H]
0040220A  83F03F  XOR EAX, 3FH  
0040220D  A881  TEST AL, 81H  
0040220F  7442  JZ 00402253  
00402211  A9 04020000  TEST EAX, 00000204H  
00402216  7507  JNZ 0040221F  
00402218  B8 8E0000C0  MOV EAX, C000008EH  
0040221D  C9  LEAVE  ;Releases the local variables ; Function epilogue - restore stack frame
0040221E  C3  RET  ;Pop IP ; Return from function
0040221F  A9 02010000  TEST EAX, 00000102H  
00402224  742D  JZ 00402253  
00402226  A9 08040000  TEST EAX, 00000408H  
0040222B  7507  JNZ 00402234  
0040222D  B8 910000C0  MOV EAX, C0000091H  
00402232  C9  LEAVE  ;Releases the local variables ; Function epilogue - restore stack frame
00402233  C3  RET  ;Pop IP ; Return from function
00402234  A9 10080000  TEST EAX, 00000810H  
00402239  7507  JNZ 00402242  
0040223B  B8 930000C0  MOV EAX, C0000093H  
00402240  C9  LEAVE  ;Releases the local variables ; Function epilogue - restore stack frame
00402241  C3  RET  ;Pop IP ; Return from function
00402242  A9 20100000  TEST EAX, 00001020H  
00402247  B8 8F0000C0  MOV EAX, C000008FH  
0040224C  0F44C8  CMOVE ECX,EAX  
0040224F  8BC1  MOV EAX, ECX  
00402251  C9  LEAVE  ;Releases the local variables ; Function epilogue - restore stack frame
00402252  C3  RET  ;Pop IP ; Return from function
00402253  B8 900000C0  MOV EAX, C0000090H  
00402258  C9  LEAVE  ;Releases the local variables ; Function epilogue - restore stack frame
00402259  C3  RET  ;Pop IP ; Return from function
0040225A  0000  ADD BYTE PTR DS:[EAX],AL  
0040225C  0000  ADD BYTE PTR DS:[EAX],AL  
0040225E  0000  ADD BYTE PTR DS:[EAX],AL  
00402260  0000  ADD BYTE PTR DS:[EAX],AL  
00402262  0000  ADD BYTE PTR DS:[EAX],AL  
00402264  0000  ADD BYTE PTR DS:[EAX],AL  
00402266  0000  ADD BYTE PTR DS:[EAX],AL  
00402268  0000  ADD BYTE PTR DS:[EAX],AL  
0040226A  0000  ADD BYTE PTR DS:[EAX],AL  
0040226C  0000  ADD BYTE PTR DS:[EAX],AL  
0040226E  0000  ADD BYTE PTR DS:[EAX],AL  
00402270  0000  ADD BYTE PTR DS:[EAX],AL  
00402272  0000  ADD BYTE PTR DS:[EAX],AL  
00402274  0000  ADD BYTE PTR DS:[EAX],AL  
00402276  0000  ADD BYTE PTR DS:[EAX],AL  
00402278  0000  ADD BYTE PTR DS:[EAX],AL  
0040227A  0000  ADD BYTE PTR DS:[EAX],AL  
0040227C  0000  ADD BYTE PTR DS:[EAX],AL  
0040227E  0000  ADD BYTE PTR DS:[EAX],AL  
00402280  0000  ADD BYTE PTR DS:[EAX],AL  
00402282  0000  ADD BYTE PTR DS:[EAX],AL  
00402284  0000  ADD BYTE PTR DS:[EAX],AL  
00402286  0000  ADD BYTE PTR DS:[EAX],AL  
00402288  0000  ADD BYTE PTR DS:[EAX],AL  
0040228A  0000  ADD BYTE PTR DS:[EAX],AL  
0040228C  0000  ADD BYTE PTR DS:[EAX],AL  
0040228E  0000  ADD BYTE PTR DS:[EAX],AL  
00402290  0000  ADD BYTE PTR DS:[EAX],AL  
00402292  0000  ADD BYTE PTR DS:[EAX],AL  
00402294  0000  ADD BYTE PTR DS:[EAX],AL  
00402296  0000  ADD BYTE PTR DS:[EAX],AL  
00402298  0000  ADD BYTE PTR DS:[EAX],AL  
0040229A  0000  ADD BYTE PTR DS:[EAX],AL  
0040229C  0000  ADD BYTE PTR DS:[EAX],AL  
0040229E  0000  ADD BYTE PTR DS:[EAX],AL  
004022A0  0000  ADD BYTE PTR DS:[EAX],AL  
004022A2  0000  ADD BYTE PTR DS:[EAX],AL  
004022A4  0000  ADD BYTE PTR DS:[EAX],AL  
004022A6  0000  ADD BYTE PTR DS:[EAX],AL  
004022A8  0000  ADD BYTE PTR DS:[EAX],AL  
004022AA  0000  ADD BYTE PTR DS:[EAX],AL  
004022AC  0000  ADD BYTE PTR DS:[EAX],AL  
004022AE  0000  ADD BYTE PTR DS:[EAX],AL  
004022B0  0000  ADD BYTE PTR DS:[EAX],AL  
004022B2  0000  ADD BYTE PTR DS:[EAX],AL  
004022B4  0000  ADD BYTE PTR DS:[EAX],AL  
004022B6  0000  ADD BYTE PTR DS:[EAX],AL  
004022B8  0000  ADD BYTE PTR DS:[EAX],AL  
004022BA  0000  ADD BYTE PTR DS:[EAX],AL  
004022BC  0000  ADD BYTE PTR DS:[EAX],AL  
004022BE  0000  ADD BYTE PTR DS:[EAX],AL  
004022C0  0000  ADD BYTE PTR DS:[EAX],AL  
004022C2  0000  ADD BYTE PTR DS:[EAX],AL  
004022C4  0000  ADD BYTE PTR DS:[EAX],AL  
004022C6  0000  ADD BYTE PTR DS:[EAX],AL  
004022C8  0000  ADD BYTE PTR DS:[EAX],AL  
004022CA  0000  ADD BYTE PTR DS:[EAX],AL  
004022CC  0000  ADD BYTE PTR DS:[EAX],AL  
004022CE  0000  ADD BYTE PTR DS:[EAX],AL  
004022D0  0000  ADD BYTE PTR DS:[EAX],AL  
004022D2  0000  ADD BYTE PTR DS:[EAX],AL  
004022D4  0000  ADD BYTE PTR DS:[EAX],AL  
004022D6  0000  ADD BYTE PTR DS:[EAX],AL  
004022D8  0000  ADD BYTE PTR DS:[EAX],AL  
004022DA  0000  ADD BYTE PTR DS:[EAX],AL  
004022DC  0000  ADD BYTE PTR DS:[EAX],AL  
004022DE  0000  ADD BYTE PTR DS:[EAX],AL  
004022E0  0000  ADD BYTE PTR DS:[EAX],AL  
004022E2  0000  ADD BYTE PTR DS:[EAX],AL  
004022E4  0000  ADD BYTE PTR DS:[EAX],AL  
004022E6  0000  ADD BYTE PTR DS:[EAX],AL  
004022E8  0000  ADD BYTE PTR DS:[EAX],AL  
004022EA  0000  ADD BYTE PTR DS:[EAX],AL  
004022EC  0000  ADD BYTE PTR DS:[EAX],AL  
004022EE  0000  ADD BYTE PTR DS:[EAX],AL  
004022F0  0000  ADD BYTE PTR DS:[EAX],AL  
004022F2  0000  ADD BYTE PTR DS:[EAX],AL  
004022F4  0000  ADD BYTE PTR DS:[EAX],AL  
004022F6  0000  ADD BYTE PTR DS:[EAX],AL  
004022F8  0000  ADD BYTE PTR DS:[EAX],AL  
004022FA  0000  ADD BYTE PTR DS:[EAX],AL  
004022FC  0000  ADD BYTE PTR DS:[EAX],AL  
004022FE  0000  ADD BYTE PTR DS:[EAX],AL  
00402300  0000  ADD BYTE PTR DS:[EAX],AL  
00402302  0000  ADD BYTE PTR DS:[EAX],AL  
00402304  0000  ADD BYTE PTR DS:[EAX],AL  
00402306  0000  ADD BYTE PTR DS:[EAX],AL  
00402308  0000  ADD BYTE PTR DS:[EAX],AL  
0040230A  0000  ADD BYTE PTR DS:[EAX],AL  
0040230C  0000  ADD BYTE PTR DS:[EAX],AL  
0040230E  0000  ADD BYTE PTR DS:[EAX],AL  
00402310  0000  ADD BYTE PTR DS:[EAX],AL  
00402312  0000  ADD BYTE PTR DS:[EAX],AL  
00402314  0000  ADD BYTE PTR DS:[EAX],AL  
00402316  0000  ADD BYTE PTR DS:[EAX],AL  
00402318  0000  ADD BYTE PTR DS:[EAX],AL  
0040231A  0000  ADD BYTE PTR DS:[EAX],AL  
0040231C  0000  ADD BYTE PTR DS:[EAX],AL  
0040231E  0000  ADD BYTE PTR DS:[EAX],AL  
00402320  0000  ADD BYTE PTR DS:[EAX],AL  
00402322  0000  ADD BYTE PTR DS:[EAX],AL  
00402324  0000  ADD BYTE PTR DS:[EAX],AL  
00402326  0000  ADD BYTE PTR DS:[EAX],AL  
00402328  0000  ADD BYTE PTR DS:[EAX],AL  
0040232A  0000  ADD BYTE PTR DS:[EAX],AL  
0040232C  0000  ADD BYTE PTR DS:[EAX],AL  
0040232E  0000  ADD BYTE PTR DS:[EAX],AL  
00402330  0000  ADD BYTE PTR DS:[EAX],AL  
00402332  0000  ADD BYTE PTR DS:[EAX],AL  
00402334  0000  ADD BYTE PTR DS:[EAX],AL  
00402336  0000  ADD BYTE PTR DS:[EAX],AL  
00402338  0000  ADD BYTE PTR DS:[EAX],AL  
0040233A  0000  ADD BYTE PTR DS:[EAX],AL  
0040233C  0000  ADD BYTE PTR DS:[EAX],AL  
0040233E  0000  ADD BYTE PTR DS:[EAX],AL  
00402340  0000  ADD BYTE PTR DS:[EAX],AL  
00402342  0000  ADD BYTE PTR DS:[EAX],AL  
00402344  0000  ADD BYTE PTR DS:[EAX],AL  
00402346  0000  ADD BYTE PTR DS:[EAX],AL  
00402348  0000  ADD BYTE PTR DS:[EAX],AL  
0040234A  0000  ADD BYTE PTR DS:[EAX],AL  
0040234C  0000  ADD BYTE PTR DS:[EAX],AL  
0040234E  0000  ADD BYTE PTR DS:[EAX],AL  
00402350  0000  ADD BYTE PTR DS:[EAX],AL  
00402352  0000  ADD BYTE PTR DS:[EAX],AL  
00402354  0000  ADD BYTE PTR DS:[EAX],AL  
00402356  0000  ADD BYTE PTR DS:[EAX],AL  
00402358  0000  ADD BYTE PTR DS:[EAX],AL  
0040235A  0000  ADD BYTE PTR DS:[EAX],AL  
0040235C  0000  ADD BYTE PTR DS:[EAX],AL  
0040235E  0000  ADD BYTE PTR DS:[EAX],AL  
00402360  0000  ADD BYTE PTR DS:[EAX],AL  
00402362  0000  ADD BYTE PTR DS:[EAX],AL  
00402364  0000  ADD BYTE PTR DS:[EAX],AL  
00402366  0000  ADD BYTE PTR DS:[EAX],AL  
00402368  0000  ADD BYTE PTR DS:[EAX],AL  
0040236A  0000  ADD BYTE PTR DS:[EAX],AL  
0040236C  0000  ADD BYTE PTR DS:[EAX],AL  
0040236E  0000  ADD BYTE PTR DS:[EAX],AL  
00402370  0000  ADD BYTE PTR DS:[EAX],AL  
00402372  0000  ADD BYTE PTR DS:[EAX],AL  
00402374  0000  ADD BYTE PTR DS:[EAX],AL  
00402376  0000  ADD BYTE PTR DS:[EAX],AL  
00402378  0000  ADD BYTE PTR DS:[EAX],AL  
0040237A  0000  ADD BYTE PTR DS:[EAX],AL  
0040237C  0000  ADD BYTE PTR DS:[EAX],AL  
0040237E  0000  ADD BYTE PTR DS:[EAX],AL  
00402380  0000  ADD BYTE PTR DS:[EAX],AL  
00402382  0000  ADD BYTE PTR DS:[EAX],AL  
00402384  0000  ADD BYTE PTR DS:[EAX],AL  
00402386  0000  ADD BYTE PTR DS:[EAX],AL  
00402388  0000  ADD BYTE PTR DS:[EAX],AL  
0040238A  0000  ADD BYTE PTR DS:[EAX],AL  
0040238C  0000  ADD BYTE PTR DS:[EAX],AL  
0040238E  0000  ADD BYTE PTR DS:[EAX],AL  
00402390  0000  ADD BYTE PTR DS:[EAX],AL  
00402392  0000  ADD BYTE PTR DS:[EAX],AL  
00402394  0000  ADD BYTE PTR DS:[EAX],AL  
00402396  0000  ADD BYTE PTR DS:[EAX],AL  
00402398  0000  ADD BYTE PTR DS:[EAX],AL  
0040239A  0000  ADD BYTE PTR DS:[EAX],AL  
0040239C  0000  ADD BYTE PTR DS:[EAX],AL  
0040239E  0000  ADD BYTE PTR DS:[EAX],AL  
004023A0  0000  ADD BYTE PTR DS:[EAX],AL  
004023A2  0000  ADD BYTE PTR DS:[EAX],AL  
004023A4  0000  ADD BYTE PTR DS:[EAX],AL  
004023A6  0000  ADD BYTE PTR DS:[EAX],AL  
004023A8  0000  ADD BYTE PTR DS:[EAX],AL  
004023AA  0000  ADD BYTE PTR DS:[EAX],AL  
004023AC  0000  ADD BYTE PTR DS:[EAX],AL  
004023AE  0000  ADD BYTE PTR DS:[EAX],AL  
004023B0  0000  ADD BYTE PTR DS:[EAX],AL  
004023B2  0000  ADD BYTE PTR DS:[EAX],AL  
004023B4  0000  ADD BYTE PTR DS:[EAX],AL  
004023B6  0000  ADD BYTE PTR DS:[EAX],AL  
004023B8  0000  ADD BYTE PTR DS:[EAX],AL  
004023BA  0000  ADD BYTE PTR DS:[EAX],AL  
004023BC  0000  ADD BYTE PTR DS:[EAX],AL  
004023BE  0000  ADD BYTE PTR DS:[EAX],AL  
004023C0  0000  ADD BYTE PTR DS:[EAX],AL  
004023C2  0000  ADD BYTE PTR DS:[EAX],AL  
004023C4  0000  ADD BYTE PTR DS:[EAX],AL  
004023C6  0000  ADD BYTE PTR DS:[EAX],AL  
004023C8  0000  ADD BYTE PTR DS:[EAX],AL  
004023CA  0000  ADD BYTE PTR DS:[EAX],AL  
004023CC  0000  ADD BYTE PTR DS:[EAX],AL  
004023CE  0000  ADD BYTE PTR DS:[EAX],AL  
004023D0  0000  ADD BYTE PTR DS:[EAX],AL  
004023D2  0000  ADD BYTE PTR DS:[EAX],AL  
004023D4  0000  ADD BYTE PTR DS:[EAX],AL  
004023D6  0000  ADD BYTE PTR DS:[EAX],AL  
004023D8  0000  ADD BYTE PTR DS:[EAX],AL  
004023DA  0000  ADD BYTE PTR DS:[EAX],AL  
004023DC  0000  ADD BYTE PTR DS:[EAX],AL  
004023DE  0000  ADD BYTE PTR DS:[EAX],AL  
004023E0  0000  ADD BYTE PTR DS:[EAX],AL  
004023E2  0000  ADD BYTE PTR DS:[EAX],AL  
004023E4  0000  ADD BYTE PTR DS:[EAX],AL  
004023E6  0000  ADD BYTE PTR DS:[EAX],AL  
004023E8  0000  ADD BYTE PTR DS:[EAX],AL  
004023EA  0000  ADD BYTE PTR DS:[EAX],AL  
004023EC  0000  ADD BYTE PTR DS:[EAX],AL  
004023EE  0000  ADD BYTE PTR DS:[EAX],AL  
004023F0  0000  ADD BYTE PTR DS:[EAX],AL  
004023F2  0000  ADD BYTE PTR DS:[EAX],AL  
004023F4  0000  ADD BYTE PTR DS:[EAX],AL  
004023F6  0000  ADD BYTE PTR DS:[EAX],AL  
004023F8  0000  ADD BYTE PTR DS:[EAX],AL  
004023FA  0000  ADD BYTE PTR DS:[EAX],AL  
004023FC  0000  ADD BYTE PTR DS:[EAX],AL  
004023FE  0000  ADD BYTE PTR DS:[EAX],AL  
